
out/bin/none:     file format elf32-i386


Disassembly of section .text:

00361000 <_start>:
  361000:	eb 22                	jmp    361024 <start>
  361002:	66 90                	xchg   %ax,%ax

00361004 <multiboot_header>:
  361004:	02 b0 ad 1b 03 00    	add    0x31bad(%eax),%dh
  36100a:	00 00                	add    %al,(%eax)
  36100c:	fb                   	sti    
  36100d:	4f                   	dec    %edi
  36100e:	52                   	push   %edx
  36100f:	e4 04                	in     $0x4,%al
  361011:	10 36                	adc    %dh,(%esi)
  361013:	00 00                	add    %al,(%eax)
  361015:	10 36                	adc    %dh,(%esi)
  361017:	00 94 31 37 00 00 49 	add    %dl,0x49000037(%ecx,%esi,1)
  36101e:	37                   	aaa    
  36101f:	00 00                	add    %al,(%eax)
  361021:	10 36                	adc    %dh,(%esi)
	...

00361024 <start>:
  361024:	fa                   	cli    
  361025:	89 1d 00 30 37 00    	mov    %ebx,0x373000
  36102b:	0f 20 c0             	mov    %cr0,%eax
  36102e:	83 c8 20             	or     $0x20,%eax
  361031:	0f 22 c0             	mov    %eax,%cr0
  361034:	bf 00 09 02 00       	mov    $0x20900,%edi
  361039:	be 10 30 37 00       	mov    $0x373010,%esi
  36103e:	b9 40 00 00 00       	mov    $0x40,%ecx
  361043:	c1 e9 02             	shr    $0x2,%ecx
  361046:	fc                   	cld    
  361047:	f3 a5                	rep movsl %ds:(%esi),%es:(%edi)
  361049:	0f 01 15 04 30 37 00 	lgdtl  0x373004
  361050:	0f 01 1d 0a 30 37 00 	lidtl  0x37300a
  361057:	ea 5e 10 36 00 08 00 	ljmp   $0x8,$0x36105e

0036105e <new_env>:
  36105e:	b8 10 00 00 00       	mov    $0x10,%eax
  361063:	8e d8                	mov    %eax,%ds
  361065:	8e c0                	mov    %eax,%es
  361067:	8e d0                	mov    %eax,%ss
  361069:	8e e0                	mov    %eax,%fs
  36106b:	8e e8                	mov    %eax,%gs
  36106d:	bc f0 ff 3f 00       	mov    $0x3ffff0,%esp
  361072:	e8 5c a5 00 00       	call   36b5d3 <main>
  361077:	fb                   	sti    
  361078:	eb fe                	jmp    361078 <new_env+0x1a>

0036107a <divide_error>:
  36107a:	6a 00                	push   $0x0
  36107c:	68 be 93 36 00       	push   $0x3693be

00361081 <error_code>:
  361081:	87 44 24 04          	xchg   %eax,0x4(%esp)
  361085:	87 0c 24             	xchg   %ecx,(%esp)
  361088:	52                   	push   %edx
  361089:	53                   	push   %ebx
  36108a:	55                   	push   %ebp
  36108b:	56                   	push   %esi
  36108c:	57                   	push   %edi
  36108d:	06                   	push   %es
  36108e:	1e                   	push   %ds
  36108f:	0f a0                	push   %fs
  361091:	0f a8                	push   %gs
  361093:	54                   	push   %esp
  361094:	50                   	push   %eax
  361095:	b8 10 00 00 00       	mov    $0x10,%eax
  36109a:	8e d8                	mov    %eax,%ds
  36109c:	8e c0                	mov    %eax,%es
  36109e:	8e e0                	mov    %eax,%fs
  3610a0:	ff d1                	call   *%ecx
  3610a2:	83 c4 08             	add    $0x8,%esp
  3610a5:	0f a9                	pop    %gs
  3610a7:	0f a1                	pop    %fs
  3610a9:	1f                   	pop    %ds
  3610aa:	07                   	pop    %es
  3610ab:	5f                   	pop    %edi
  3610ac:	5e                   	pop    %esi
  3610ad:	5d                   	pop    %ebp
  3610ae:	5b                   	pop    %ebx
  3610af:	5a                   	pop    %edx
  3610b0:	59                   	pop    %ecx
  3610b1:	58                   	pop    %eax
  3610b2:	cf                   	iret   

003610b3 <single_step_exception>:
  3610b3:	6a 00                	push   $0x0
  3610b5:	68 dc 93 36 00       	push   $0x3693dc
  3610ba:	eb c5                	jmp    361081 <error_code>

003610bc <nmi>:
  3610bc:	6a 00                	push   $0x0
  3610be:	68 0a 94 36 00       	push   $0x36940a
  3610c3:	eb bc                	jmp    361081 <error_code>

003610c5 <breakpoint_exception>:
  3610c5:	6a 00                	push   $0x0
  3610c7:	68 28 94 36 00       	push   $0x369428
  3610cc:	eb b3                	jmp    361081 <error_code>

003610ce <overflow>:
  3610ce:	6a 00                	push   $0x0
  3610d0:	68 56 94 36 00       	push   $0x369456
  3610d5:	eb aa                	jmp    361081 <error_code>

003610d7 <bounds_check>:
  3610d7:	6a 00                	push   $0x0
  3610d9:	68 74 94 36 00       	push   $0x369474
  3610de:	eb a1                	jmp    361081 <error_code>

003610e0 <inval_opcode>:
  3610e0:	6a 00                	push   $0x0
  3610e2:	68 92 94 36 00       	push   $0x369492
  3610e7:	eb 98                	jmp    361081 <error_code>

003610e9 <copr_not_available>:
  3610e9:	6a 00                	push   $0x0
  3610eb:	68 b0 94 36 00       	push   $0x3694b0
  3610f0:	eb 8f                	jmp    361081 <error_code>

003610f2 <double_fault>:
  3610f2:	68 ce 94 36 00       	push   $0x3694ce
  3610f7:	eb 88                	jmp    361081 <error_code>

003610f9 <copr_seg_overrun>:
  3610f9:	6a 00                	push   $0x0
  3610fb:	68 ec 94 36 00       	push   $0x3694ec
  361100:	e9 7c ff ff ff       	jmp    361081 <error_code>

00361105 <inval_tss>:
  361105:	68 0a 95 36 00       	push   $0x36950a
  36110a:	e9 72 ff ff ff       	jmp    361081 <error_code>

0036110f <segment_not_present>:
  36110f:	68 28 95 36 00       	push   $0x369528
  361114:	e9 68 ff ff ff       	jmp    361081 <error_code>

00361119 <stack_exception>:
  361119:	68 46 95 36 00       	push   $0x369546
  36111e:	e9 5e ff ff ff       	jmp    361081 <error_code>

00361123 <general_protection>:
  361123:	68 64 95 36 00       	push   $0x369564
  361128:	e9 54 ff ff ff       	jmp    361081 <error_code>

0036112d <page_fault>:
  36112d:	68 82 95 36 00       	push   $0x369582
  361132:	e9 4a ff ff ff       	jmp    361081 <error_code>

00361137 <copr_error>:
  361137:	6a 00                	push   $0x0
  361139:	68 f7 95 36 00       	push   $0x3695f7
  36113e:	e9 3e ff ff ff       	jmp    361081 <error_code>

00361143 <none>:
  361143:	6a 00                	push   $0x0
  361145:	68 15 96 36 00       	push   $0x369615
  36114a:	e9 32 ff ff ff       	jmp    361081 <error_code>

0036114f <switch_task>:
  36114f:	60                   	pusha  
  361150:	06                   	push   %es
  361151:	1e                   	push   %ds
  361152:	0f a0                	push   %fs
  361154:	0f a8                	push   %gs
  361156:	b8 10 00 00 00       	mov    $0x10,%eax
  36115b:	8e d8                	mov    %eax,%ds
  36115d:	8e c0                	mov    %eax,%es
  36115f:	8e e0                	mov    %eax,%fs
  361161:	8e e8                	mov    %eax,%gs
  361163:	8b 1d c4 37 37 00    	mov    0x3737c4,%ebx
  361169:	89 a3 00 01 00 00    	mov    %esp,0x100(%ebx)
  36116f:	e8 7e 8d 00 00       	call   369ef2 <sched>
  361174:	8b 1d c4 37 37 00    	mov    0x3737c4,%ebx
  36117a:	8b a3 00 01 00 00    	mov    0x100(%ebx),%esp
  361180:	8b 83 04 01 00 00    	mov    0x104(%ebx),%eax
  361186:	0f 22 d8             	mov    %eax,%cr3
  361189:	0f a9                	pop    %gs
  36118b:	0f a1                	pop    %fs
  36118d:	1f                   	pop    %ds
  36118e:	07                   	pop    %es
  36118f:	61                   	popa   
  361190:	cf                   	iret   

00361191 <hwint00>:
  361191:	60                   	pusha  
  361192:	06                   	push   %es
  361193:	1e                   	push   %ds
  361194:	0f a0                	push   %fs
  361196:	0f a8                	push   %gs
  361198:	b8 10 00 00 00       	mov    $0x10,%eax
  36119d:	8e d8                	mov    %eax,%ds
  36119f:	8e c0                	mov    %eax,%es
  3611a1:	8e e0                	mov    %eax,%fs
  3611a3:	8e e8                	mov    %eax,%gs
  3611a5:	e4 21                	in     $0x21,%al
  3611a7:	0a 05 01 00 00 00    	or     0x1,%al
  3611ad:	e6 21                	out    %al,$0x21
  3611af:	b0 20                	mov    $0x20,%al
  3611b1:	e6 20                	out    %al,$0x20
  3611b3:	ff 05 00 38 37 00    	incl   0x373800
  3611b9:	8b 1d c4 37 37 00    	mov    0x3737c4,%ebx
  3611bf:	8b 83 f8 00 00 00    	mov    0xf8(%ebx),%eax
  3611c5:	85 c0                	test   %eax,%eax
  3611c7:	74 06                	je     3611cf <hwint00+0x3e>
  3611c9:	ff 8b f8 00 00 00    	decl   0xf8(%ebx)
  3611cf:	a1 00 38 37 00       	mov    0x373800,%eax
  3611d4:	25 ff 03 00 00       	and    $0x3ff,%eax
  3611d9:	74 0a                	je     3611e5 <hwint00+0x54>
  3611db:	6a 00                	push   $0x0
  3611dd:	e8 60 85 00 00       	call   369742 <irq_handler>
  3611e2:	83 c4 04             	add    $0x4,%esp
  3611e5:	8b 1d c4 37 37 00    	mov    0x3737c4,%ebx
  3611eb:	89 a3 00 01 00 00    	mov    %esp,0x100(%ebx)
  3611f1:	e8 fc 8c 00 00       	call   369ef2 <sched>
  3611f6:	8b 1d c4 37 37 00    	mov    0x3737c4,%ebx
  3611fc:	8b a3 00 01 00 00    	mov    0x100(%ebx),%esp
  361202:	8b 83 04 01 00 00    	mov    0x104(%ebx),%eax
  361208:	0f 22 d8             	mov    %eax,%cr3
  36120b:	e4 21                	in     $0x21,%al
  36120d:	24 fe                	and    $0xfe,%al
  36120f:	e6 21                	out    %al,$0x21
  361211:	0f a9                	pop    %gs
  361213:	0f a1                	pop    %fs
  361215:	1f                   	pop    %ds
  361216:	07                   	pop    %es
  361217:	61                   	popa   
  361218:	cf                   	iret   

00361219 <hwint01>:
  361219:	60                   	pusha  
  36121a:	06                   	push   %es
  36121b:	1e                   	push   %ds
  36121c:	0f a0                	push   %fs
  36121e:	0f a8                	push   %gs
  361220:	b8 10 00 00 00       	mov    $0x10,%eax
  361225:	8e d8                	mov    %eax,%ds
  361227:	8e c0                	mov    %eax,%es
  361229:	8e e0                	mov    %eax,%fs
  36122b:	8e e8                	mov    %eax,%gs
  36122d:	e4 21                	in     $0x21,%al
  36122f:	0c 02                	or     $0x2,%al
  361231:	e6 21                	out    %al,$0x21
  361233:	b0 20                	mov    $0x20,%al
  361235:	e6 20                	out    %al,$0x20
  361237:	fb                   	sti    
  361238:	6a 01                	push   $0x1
  36123a:	e8 03 85 00 00       	call   369742 <irq_handler>
  36123f:	83 c4 04             	add    $0x4,%esp
  361242:	fa                   	cli    
  361243:	e4 21                	in     $0x21,%al
  361245:	24 fd                	and    $0xfd,%al
  361247:	e6 21                	out    %al,$0x21
  361249:	0f a9                	pop    %gs
  36124b:	0f a1                	pop    %fs
  36124d:	1f                   	pop    %ds
  36124e:	07                   	pop    %es
  36124f:	61                   	popa   
  361250:	cf                   	iret   

00361251 <hwint02>:
  361251:	60                   	pusha  
  361252:	06                   	push   %es
  361253:	1e                   	push   %ds
  361254:	0f a0                	push   %fs
  361256:	0f a8                	push   %gs
  361258:	b8 10 00 00 00       	mov    $0x10,%eax
  36125d:	8e d8                	mov    %eax,%ds
  36125f:	8e c0                	mov    %eax,%es
  361261:	8e e0                	mov    %eax,%fs
  361263:	8e e8                	mov    %eax,%gs
  361265:	e4 21                	in     $0x21,%al
  361267:	0c 04                	or     $0x4,%al
  361269:	e6 21                	out    %al,$0x21
  36126b:	b0 20                	mov    $0x20,%al
  36126d:	e6 20                	out    %al,$0x20
  36126f:	fb                   	sti    
  361270:	6a 02                	push   $0x2
  361272:	e8 cb 84 00 00       	call   369742 <irq_handler>
  361277:	83 c4 04             	add    $0x4,%esp
  36127a:	fa                   	cli    
  36127b:	e4 21                	in     $0x21,%al
  36127d:	24 fb                	and    $0xfb,%al
  36127f:	e6 21                	out    %al,$0x21
  361281:	0f a9                	pop    %gs
  361283:	0f a1                	pop    %fs
  361285:	1f                   	pop    %ds
  361286:	07                   	pop    %es
  361287:	61                   	popa   
  361288:	cf                   	iret   

00361289 <hwint03>:
  361289:	60                   	pusha  
  36128a:	06                   	push   %es
  36128b:	1e                   	push   %ds
  36128c:	0f a0                	push   %fs
  36128e:	0f a8                	push   %gs
  361290:	b8 10 00 00 00       	mov    $0x10,%eax
  361295:	8e d8                	mov    %eax,%ds
  361297:	8e c0                	mov    %eax,%es
  361299:	8e e0                	mov    %eax,%fs
  36129b:	8e e8                	mov    %eax,%gs
  36129d:	e4 21                	in     $0x21,%al
  36129f:	0c 08                	or     $0x8,%al
  3612a1:	e6 21                	out    %al,$0x21
  3612a3:	b0 20                	mov    $0x20,%al
  3612a5:	e6 20                	out    %al,$0x20
  3612a7:	fb                   	sti    
  3612a8:	6a 03                	push   $0x3
  3612aa:	e8 93 84 00 00       	call   369742 <irq_handler>
  3612af:	83 c4 04             	add    $0x4,%esp
  3612b2:	fa                   	cli    
  3612b3:	e4 21                	in     $0x21,%al
  3612b5:	24 f7                	and    $0xf7,%al
  3612b7:	e6 21                	out    %al,$0x21
  3612b9:	0f a9                	pop    %gs
  3612bb:	0f a1                	pop    %fs
  3612bd:	1f                   	pop    %ds
  3612be:	07                   	pop    %es
  3612bf:	61                   	popa   
  3612c0:	cf                   	iret   

003612c1 <hwint04>:
  3612c1:	60                   	pusha  
  3612c2:	06                   	push   %es
  3612c3:	1e                   	push   %ds
  3612c4:	0f a0                	push   %fs
  3612c6:	0f a8                	push   %gs
  3612c8:	b8 10 00 00 00       	mov    $0x10,%eax
  3612cd:	8e d8                	mov    %eax,%ds
  3612cf:	8e c0                	mov    %eax,%es
  3612d1:	8e e0                	mov    %eax,%fs
  3612d3:	8e e8                	mov    %eax,%gs
  3612d5:	e4 21                	in     $0x21,%al
  3612d7:	0c 10                	or     $0x10,%al
  3612d9:	e6 21                	out    %al,$0x21
  3612db:	b0 20                	mov    $0x20,%al
  3612dd:	e6 20                	out    %al,$0x20
  3612df:	fb                   	sti    
  3612e0:	6a 04                	push   $0x4
  3612e2:	e8 5b 84 00 00       	call   369742 <irq_handler>
  3612e7:	83 c4 04             	add    $0x4,%esp
  3612ea:	fa                   	cli    
  3612eb:	e4 21                	in     $0x21,%al
  3612ed:	24 ef                	and    $0xef,%al
  3612ef:	e6 21                	out    %al,$0x21
  3612f1:	0f a9                	pop    %gs
  3612f3:	0f a1                	pop    %fs
  3612f5:	1f                   	pop    %ds
  3612f6:	07                   	pop    %es
  3612f7:	61                   	popa   
  3612f8:	cf                   	iret   

003612f9 <hwint05>:
  3612f9:	60                   	pusha  
  3612fa:	06                   	push   %es
  3612fb:	1e                   	push   %ds
  3612fc:	0f a0                	push   %fs
  3612fe:	0f a8                	push   %gs
  361300:	b8 10 00 00 00       	mov    $0x10,%eax
  361305:	8e d8                	mov    %eax,%ds
  361307:	8e c0                	mov    %eax,%es
  361309:	8e e0                	mov    %eax,%fs
  36130b:	8e e8                	mov    %eax,%gs
  36130d:	e4 21                	in     $0x21,%al
  36130f:	0c 20                	or     $0x20,%al
  361311:	e6 21                	out    %al,$0x21
  361313:	b0 20                	mov    $0x20,%al
  361315:	e6 20                	out    %al,$0x20
  361317:	fb                   	sti    
  361318:	6a 05                	push   $0x5
  36131a:	e8 23 84 00 00       	call   369742 <irq_handler>
  36131f:	83 c4 04             	add    $0x4,%esp
  361322:	fa                   	cli    
  361323:	e4 21                	in     $0x21,%al
  361325:	24 df                	and    $0xdf,%al
  361327:	e6 21                	out    %al,$0x21
  361329:	0f a9                	pop    %gs
  36132b:	0f a1                	pop    %fs
  36132d:	1f                   	pop    %ds
  36132e:	07                   	pop    %es
  36132f:	61                   	popa   
  361330:	cf                   	iret   

00361331 <hwint06>:
  361331:	60                   	pusha  
  361332:	06                   	push   %es
  361333:	1e                   	push   %ds
  361334:	0f a0                	push   %fs
  361336:	0f a8                	push   %gs
  361338:	b8 10 00 00 00       	mov    $0x10,%eax
  36133d:	8e d8                	mov    %eax,%ds
  36133f:	8e c0                	mov    %eax,%es
  361341:	8e e0                	mov    %eax,%fs
  361343:	8e e8                	mov    %eax,%gs
  361345:	e4 21                	in     $0x21,%al
  361347:	0c 40                	or     $0x40,%al
  361349:	e6 21                	out    %al,$0x21
  36134b:	b0 20                	mov    $0x20,%al
  36134d:	e6 20                	out    %al,$0x20
  36134f:	fb                   	sti    
  361350:	6a 06                	push   $0x6
  361352:	e8 eb 83 00 00       	call   369742 <irq_handler>
  361357:	83 c4 04             	add    $0x4,%esp
  36135a:	fa                   	cli    
  36135b:	e4 21                	in     $0x21,%al
  36135d:	24 bf                	and    $0xbf,%al
  36135f:	e6 21                	out    %al,$0x21
  361361:	0f a9                	pop    %gs
  361363:	0f a1                	pop    %fs
  361365:	1f                   	pop    %ds
  361366:	07                   	pop    %es
  361367:	61                   	popa   
  361368:	cf                   	iret   

00361369 <hwint07>:
  361369:	60                   	pusha  
  36136a:	06                   	push   %es
  36136b:	1e                   	push   %ds
  36136c:	0f a0                	push   %fs
  36136e:	0f a8                	push   %gs
  361370:	b8 10 00 00 00       	mov    $0x10,%eax
  361375:	8e d8                	mov    %eax,%ds
  361377:	8e c0                	mov    %eax,%es
  361379:	8e e0                	mov    %eax,%fs
  36137b:	8e e8                	mov    %eax,%gs
  36137d:	e4 21                	in     $0x21,%al
  36137f:	0c 80                	or     $0x80,%al
  361381:	e6 21                	out    %al,$0x21
  361383:	b0 20                	mov    $0x20,%al
  361385:	e6 20                	out    %al,$0x20
  361387:	fb                   	sti    
  361388:	6a 07                	push   $0x7
  36138a:	e8 b3 83 00 00       	call   369742 <irq_handler>
  36138f:	83 c4 04             	add    $0x4,%esp
  361392:	fa                   	cli    
  361393:	e4 21                	in     $0x21,%al
  361395:	24 7f                	and    $0x7f,%al
  361397:	e6 21                	out    %al,$0x21
  361399:	0f a9                	pop    %gs
  36139b:	0f a1                	pop    %fs
  36139d:	1f                   	pop    %ds
  36139e:	07                   	pop    %es
  36139f:	61                   	popa   
  3613a0:	cf                   	iret   

003613a1 <hwint08>:
  3613a1:	60                   	pusha  
  3613a2:	06                   	push   %es
  3613a3:	1e                   	push   %ds
  3613a4:	0f a0                	push   %fs
  3613a6:	0f a8                	push   %gs
  3613a8:	b8 10 00 00 00       	mov    $0x10,%eax
  3613ad:	8e d8                	mov    %eax,%ds
  3613af:	8e c0                	mov    %eax,%es
  3613b1:	8e e0                	mov    %eax,%fs
  3613b3:	8e e8                	mov    %eax,%gs
  3613b5:	e4 a1                	in     $0xa1,%al
  3613b7:	0c 01                	or     $0x1,%al
  3613b9:	e6 a1                	out    %al,$0xa1
  3613bb:	b0 20                	mov    $0x20,%al
  3613bd:	e6 20                	out    %al,$0x20
  3613bf:	eb 00                	jmp    3613c1 <hwint08+0x20>
  3613c1:	e6 a0                	out    %al,$0xa0
  3613c3:	fb                   	sti    
  3613c4:	6a 08                	push   $0x8
  3613c6:	e8 77 83 00 00       	call   369742 <irq_handler>
  3613cb:	83 c4 04             	add    $0x4,%esp
  3613ce:	fa                   	cli    
  3613cf:	e4 a1                	in     $0xa1,%al
  3613d1:	24 fe                	and    $0xfe,%al
  3613d3:	e6 a1                	out    %al,$0xa1
  3613d5:	0f a9                	pop    %gs
  3613d7:	0f a1                	pop    %fs
  3613d9:	1f                   	pop    %ds
  3613da:	07                   	pop    %es
  3613db:	61                   	popa   
  3613dc:	cf                   	iret   

003613dd <hwint09>:
  3613dd:	60                   	pusha  
  3613de:	06                   	push   %es
  3613df:	1e                   	push   %ds
  3613e0:	0f a0                	push   %fs
  3613e2:	0f a8                	push   %gs
  3613e4:	b8 10 00 00 00       	mov    $0x10,%eax
  3613e9:	8e d8                	mov    %eax,%ds
  3613eb:	8e c0                	mov    %eax,%es
  3613ed:	8e e0                	mov    %eax,%fs
  3613ef:	8e e8                	mov    %eax,%gs
  3613f1:	e4 a1                	in     $0xa1,%al
  3613f3:	0c 02                	or     $0x2,%al
  3613f5:	e6 a1                	out    %al,$0xa1
  3613f7:	b0 20                	mov    $0x20,%al
  3613f9:	e6 20                	out    %al,$0x20
  3613fb:	eb 00                	jmp    3613fd <hwint09+0x20>
  3613fd:	e6 a0                	out    %al,$0xa0
  3613ff:	fb                   	sti    
  361400:	6a 09                	push   $0x9
  361402:	e8 3b 83 00 00       	call   369742 <irq_handler>
  361407:	83 c4 04             	add    $0x4,%esp
  36140a:	fa                   	cli    
  36140b:	e4 a1                	in     $0xa1,%al
  36140d:	24 fd                	and    $0xfd,%al
  36140f:	e6 a1                	out    %al,$0xa1
  361411:	0f a9                	pop    %gs
  361413:	0f a1                	pop    %fs
  361415:	1f                   	pop    %ds
  361416:	07                   	pop    %es
  361417:	61                   	popa   
  361418:	cf                   	iret   

00361419 <hwint10>:
  361419:	60                   	pusha  
  36141a:	06                   	push   %es
  36141b:	1e                   	push   %ds
  36141c:	0f a0                	push   %fs
  36141e:	0f a8                	push   %gs
  361420:	b8 10 00 00 00       	mov    $0x10,%eax
  361425:	8e d8                	mov    %eax,%ds
  361427:	8e c0                	mov    %eax,%es
  361429:	8e e0                	mov    %eax,%fs
  36142b:	8e e8                	mov    %eax,%gs
  36142d:	e4 a1                	in     $0xa1,%al
  36142f:	0c 04                	or     $0x4,%al
  361431:	e6 a1                	out    %al,$0xa1
  361433:	b0 20                	mov    $0x20,%al
  361435:	e6 20                	out    %al,$0x20
  361437:	eb 00                	jmp    361439 <hwint10+0x20>
  361439:	e6 a0                	out    %al,$0xa0
  36143b:	fb                   	sti    
  36143c:	6a 0a                	push   $0xa
  36143e:	e8 ff 82 00 00       	call   369742 <irq_handler>
  361443:	83 c4 04             	add    $0x4,%esp
  361446:	fa                   	cli    
  361447:	e4 a1                	in     $0xa1,%al
  361449:	24 fb                	and    $0xfb,%al
  36144b:	e6 a1                	out    %al,$0xa1
  36144d:	0f a9                	pop    %gs
  36144f:	0f a1                	pop    %fs
  361451:	1f                   	pop    %ds
  361452:	07                   	pop    %es
  361453:	61                   	popa   
  361454:	cf                   	iret   

00361455 <hwint11>:
  361455:	60                   	pusha  
  361456:	06                   	push   %es
  361457:	1e                   	push   %ds
  361458:	0f a0                	push   %fs
  36145a:	0f a8                	push   %gs
  36145c:	b8 10 00 00 00       	mov    $0x10,%eax
  361461:	8e d8                	mov    %eax,%ds
  361463:	8e c0                	mov    %eax,%es
  361465:	8e e0                	mov    %eax,%fs
  361467:	8e e8                	mov    %eax,%gs
  361469:	e4 a1                	in     $0xa1,%al
  36146b:	0c 08                	or     $0x8,%al
  36146d:	e6 a1                	out    %al,$0xa1
  36146f:	b0 20                	mov    $0x20,%al
  361471:	e6 20                	out    %al,$0x20
  361473:	eb 00                	jmp    361475 <hwint11+0x20>
  361475:	e6 a0                	out    %al,$0xa0
  361477:	fb                   	sti    
  361478:	6a 0b                	push   $0xb
  36147a:	e8 c3 82 00 00       	call   369742 <irq_handler>
  36147f:	83 c4 04             	add    $0x4,%esp
  361482:	fa                   	cli    
  361483:	e4 a1                	in     $0xa1,%al
  361485:	24 f7                	and    $0xf7,%al
  361487:	e6 a1                	out    %al,$0xa1
  361489:	0f a9                	pop    %gs
  36148b:	0f a1                	pop    %fs
  36148d:	1f                   	pop    %ds
  36148e:	07                   	pop    %es
  36148f:	61                   	popa   
  361490:	cf                   	iret   

00361491 <hwint12>:
  361491:	60                   	pusha  
  361492:	06                   	push   %es
  361493:	1e                   	push   %ds
  361494:	0f a0                	push   %fs
  361496:	0f a8                	push   %gs
  361498:	b8 10 00 00 00       	mov    $0x10,%eax
  36149d:	8e d8                	mov    %eax,%ds
  36149f:	8e c0                	mov    %eax,%es
  3614a1:	8e e0                	mov    %eax,%fs
  3614a3:	8e e8                	mov    %eax,%gs
  3614a5:	e4 a1                	in     $0xa1,%al
  3614a7:	0c 10                	or     $0x10,%al
  3614a9:	e6 a1                	out    %al,$0xa1
  3614ab:	b0 20                	mov    $0x20,%al
  3614ad:	e6 20                	out    %al,$0x20
  3614af:	eb 00                	jmp    3614b1 <hwint12+0x20>
  3614b1:	e6 a0                	out    %al,$0xa0
  3614b3:	fb                   	sti    
  3614b4:	6a 0c                	push   $0xc
  3614b6:	e8 87 82 00 00       	call   369742 <irq_handler>
  3614bb:	83 c4 04             	add    $0x4,%esp
  3614be:	fa                   	cli    
  3614bf:	e4 a1                	in     $0xa1,%al
  3614c1:	24 ef                	and    $0xef,%al
  3614c3:	e6 a1                	out    %al,$0xa1
  3614c5:	0f a9                	pop    %gs
  3614c7:	0f a1                	pop    %fs
  3614c9:	1f                   	pop    %ds
  3614ca:	07                   	pop    %es
  3614cb:	61                   	popa   
  3614cc:	cf                   	iret   

003614cd <hwint13>:
  3614cd:	60                   	pusha  
  3614ce:	06                   	push   %es
  3614cf:	1e                   	push   %ds
  3614d0:	0f a0                	push   %fs
  3614d2:	0f a8                	push   %gs
  3614d4:	b8 10 00 00 00       	mov    $0x10,%eax
  3614d9:	8e d8                	mov    %eax,%ds
  3614db:	8e c0                	mov    %eax,%es
  3614dd:	8e e0                	mov    %eax,%fs
  3614df:	8e e8                	mov    %eax,%gs
  3614e1:	e4 a1                	in     $0xa1,%al
  3614e3:	0c 20                	or     $0x20,%al
  3614e5:	e6 a1                	out    %al,$0xa1
  3614e7:	b0 20                	mov    $0x20,%al
  3614e9:	e6 20                	out    %al,$0x20
  3614eb:	eb 00                	jmp    3614ed <hwint13+0x20>
  3614ed:	e6 a0                	out    %al,$0xa0
  3614ef:	fb                   	sti    
  3614f0:	6a 0d                	push   $0xd
  3614f2:	e8 4b 82 00 00       	call   369742 <irq_handler>
  3614f7:	83 c4 04             	add    $0x4,%esp
  3614fa:	fa                   	cli    
  3614fb:	e4 a1                	in     $0xa1,%al
  3614fd:	24 df                	and    $0xdf,%al
  3614ff:	e6 a1                	out    %al,$0xa1
  361501:	0f a9                	pop    %gs
  361503:	0f a1                	pop    %fs
  361505:	1f                   	pop    %ds
  361506:	07                   	pop    %es
  361507:	61                   	popa   
  361508:	cf                   	iret   

00361509 <hwint14>:
  361509:	60                   	pusha  
  36150a:	06                   	push   %es
  36150b:	1e                   	push   %ds
  36150c:	0f a0                	push   %fs
  36150e:	0f a8                	push   %gs
  361510:	b8 10 00 00 00       	mov    $0x10,%eax
  361515:	8e d8                	mov    %eax,%ds
  361517:	8e c0                	mov    %eax,%es
  361519:	8e e0                	mov    %eax,%fs
  36151b:	8e e8                	mov    %eax,%gs
  36151d:	e4 a1                	in     $0xa1,%al
  36151f:	0c 40                	or     $0x40,%al
  361521:	e6 a1                	out    %al,$0xa1
  361523:	b0 20                	mov    $0x20,%al
  361525:	e6 20                	out    %al,$0x20
  361527:	eb 00                	jmp    361529 <hwint14+0x20>
  361529:	e6 a0                	out    %al,$0xa0
  36152b:	fb                   	sti    
  36152c:	6a 0e                	push   $0xe
  36152e:	e8 0f 82 00 00       	call   369742 <irq_handler>
  361533:	83 c4 04             	add    $0x4,%esp
  361536:	fa                   	cli    
  361537:	e4 a1                	in     $0xa1,%al
  361539:	24 bf                	and    $0xbf,%al
  36153b:	e6 a1                	out    %al,$0xa1
  36153d:	0f a9                	pop    %gs
  36153f:	0f a1                	pop    %fs
  361541:	1f                   	pop    %ds
  361542:	07                   	pop    %es
  361543:	61                   	popa   
  361544:	cf                   	iret   

00361545 <hwint15>:
  361545:	60                   	pusha  
  361546:	06                   	push   %es
  361547:	1e                   	push   %ds
  361548:	0f a0                	push   %fs
  36154a:	0f a8                	push   %gs
  36154c:	b8 10 00 00 00       	mov    $0x10,%eax
  361551:	8e d8                	mov    %eax,%ds
  361553:	8e c0                	mov    %eax,%es
  361555:	8e e0                	mov    %eax,%fs
  361557:	8e e8                	mov    %eax,%gs
  361559:	e4 a1                	in     $0xa1,%al
  36155b:	0c 80                	or     $0x80,%al
  36155d:	e6 a1                	out    %al,$0xa1
  36155f:	b0 20                	mov    $0x20,%al
  361561:	e6 20                	out    %al,$0x20
  361563:	eb 00                	jmp    361565 <hwint15+0x20>
  361565:	e6 a0                	out    %al,$0xa0
  361567:	fb                   	sti    
  361568:	6a 0f                	push   $0xf
  36156a:	e8 d3 81 00 00       	call   369742 <irq_handler>
  36156f:	83 c4 04             	add    $0x4,%esp
  361572:	fa                   	cli    
  361573:	e4 a1                	in     $0xa1,%al
  361575:	24 7f                	and    $0x7f,%al
  361577:	e6 a1                	out    %al,$0xa1
  361579:	0f a9                	pop    %gs
  36157b:	0f a1                	pop    %fs
  36157d:	1f                   	pop    %ds
  36157e:	07                   	pop    %es
  36157f:	61                   	popa   
  361580:	cf                   	iret   

00361581 <bad_sys_call>:
  361581:	b8 ff ff ff ff       	mov    $0xffffffff,%eax
  361586:	fb                   	sti    
  361587:	cf                   	iret   

00361588 <method>:
  361588:	56                   	push   %esi
  361589:	57                   	push   %edi
  36158a:	52                   	push   %edx
  36158b:	51                   	push   %ecx
  36158c:	53                   	push   %ebx
  36158d:	ff d0                	call   *%eax
  36158f:	83 c4 14             	add    $0x14,%esp
  361592:	b8 00 00 00 00       	mov    $0x0,%eax
  361597:	cd 80                	int    $0x80

00361599 <_workloop>:
  361599:	1e                   	push   %ds
  36159a:	06                   	push   %es
  36159b:	b8 10 00 00 00       	mov    $0x10,%eax
  3615a0:	8e d8                	mov    %eax,%ds
  3615a2:	8e c0                	mov    %eax,%es
  3615a4:	e8 b6 8e 00 00       	call   36a45f <doloop>
  3615a9:	07                   	pop    %es
  3615aa:	1f                   	pop    %ds
  3615ab:	83 c4 04             	add    $0x4,%esp
  3615ae:	68 88 15 36 00       	push   $0x361588
  3615b3:	fb                   	sti    
  3615b4:	cf                   	iret   

003615b5 <sys_call>:
  3615b5:	fa                   	cli    
  3615b6:	3b 05 94 30 37 00    	cmp    0x373094,%eax
  3615bc:	73 c3                	jae    361581 <bad_sys_call>
  3615be:	83 f8 00             	cmp    $0x0,%eax
  3615c1:	74 d6                	je     361599 <_workloop>
  3615c3:	1e                   	push   %ds
  3615c4:	06                   	push   %es
  3615c5:	0f a0                	push   %fs
  3615c7:	56                   	push   %esi
  3615c8:	57                   	push   %edi
  3615c9:	52                   	push   %edx
  3615ca:	51                   	push   %ecx
  3615cb:	53                   	push   %ebx
  3615cc:	50                   	push   %eax
  3615cd:	b8 10 00 00 00       	mov    $0x10,%eax
  3615d2:	8e d8                	mov    %eax,%ds
  3615d4:	8e c0                	mov    %eax,%es
  3615d6:	8e e0                	mov    %eax,%fs
  3615d8:	58                   	pop    %eax
  3615d9:	ff 14 85 80 30 37 00 	call   *0x373080(,%eax,4)

003615e0 <ret_from_sys_call>:
  3615e0:	5b                   	pop    %ebx
  3615e1:	59                   	pop    %ecx
  3615e2:	5a                   	pop    %edx
  3615e3:	5f                   	pop    %edi
  3615e4:	5e                   	pop    %esi
  3615e5:	0f a1                	pop    %fs
  3615e7:	07                   	pop    %es
  3615e8:	1f                   	pop    %ds
  3615e9:	fb                   	sti    
  3615ea:	cf                   	iret   

003615eb <INIT_LIST_HEAD>:
  3615eb:	55                   	push   %ebp
  3615ec:	89 e5                	mov    %esp,%ebp
  3615ee:	8b 45 08             	mov    0x8(%ebp),%eax
  3615f1:	8b 55 08             	mov    0x8(%ebp),%edx
  3615f4:	89 10                	mov    %edx,(%eax)
  3615f6:	8b 45 08             	mov    0x8(%ebp),%eax
  3615f9:	8b 55 08             	mov    0x8(%ebp),%edx
  3615fc:	89 50 04             	mov    %edx,0x4(%eax)
  3615ff:	5d                   	pop    %ebp
  361600:	c3                   	ret    

00361601 <__list_add>:
  361601:	55                   	push   %ebp
  361602:	89 e5                	mov    %esp,%ebp
  361604:	8b 45 10             	mov    0x10(%ebp),%eax
  361607:	8b 55 08             	mov    0x8(%ebp),%edx
  36160a:	89 50 04             	mov    %edx,0x4(%eax)
  36160d:	8b 45 08             	mov    0x8(%ebp),%eax
  361610:	8b 55 10             	mov    0x10(%ebp),%edx
  361613:	89 10                	mov    %edx,(%eax)
  361615:	8b 45 08             	mov    0x8(%ebp),%eax
  361618:	8b 55 0c             	mov    0xc(%ebp),%edx
  36161b:	89 50 04             	mov    %edx,0x4(%eax)
  36161e:	8b 45 0c             	mov    0xc(%ebp),%eax
  361621:	8b 55 08             	mov    0x8(%ebp),%edx
  361624:	89 10                	mov    %edx,(%eax)
  361626:	5d                   	pop    %ebp
  361627:	c3                   	ret    

00361628 <list_add>:
  361628:	55                   	push   %ebp
  361629:	89 e5                	mov    %esp,%ebp
  36162b:	8b 45 0c             	mov    0xc(%ebp),%eax
  36162e:	8b 00                	mov    (%eax),%eax
  361630:	50                   	push   %eax
  361631:	ff 75 0c             	pushl  0xc(%ebp)
  361634:	ff 75 08             	pushl  0x8(%ebp)
  361637:	e8 c5 ff ff ff       	call   361601 <__list_add>
  36163c:	83 c4 0c             	add    $0xc,%esp
  36163f:	c9                   	leave  
  361640:	c3                   	ret    

00361641 <strcpy>:
  361641:	55                   	push   %ebp
  361642:	89 e5                	mov    %esp,%ebp
  361644:	57                   	push   %edi
  361645:	56                   	push   %esi
  361646:	8b 55 0c             	mov    0xc(%ebp),%edx
  361649:	8b 4d 08             	mov    0x8(%ebp),%ecx
  36164c:	89 d6                	mov    %edx,%esi
  36164e:	89 cf                	mov    %ecx,%edi
  361650:	fc                   	cld    
  361651:	ac                   	lods   %ds:(%esi),%al
  361652:	aa                   	stos   %al,%es:(%edi)
  361653:	84 c0                	test   %al,%al
  361655:	75 fa                	jne    361651 <strcpy+0x10>
  361657:	8b 45 08             	mov    0x8(%ebp),%eax
  36165a:	5e                   	pop    %esi
  36165b:	5f                   	pop    %edi
  36165c:	5d                   	pop    %ebp
  36165d:	c3                   	ret    

0036165e <memcpy>:
  36165e:	55                   	push   %ebp
  36165f:	89 e5                	mov    %esp,%ebp
  361661:	57                   	push   %edi
  361662:	56                   	push   %esi
  361663:	53                   	push   %ebx
  361664:	8b 45 10             	mov    0x10(%ebp),%eax
  361667:	8b 55 0c             	mov    0xc(%ebp),%edx
  36166a:	8b 5d 08             	mov    0x8(%ebp),%ebx
  36166d:	89 c1                	mov    %eax,%ecx
  36166f:	89 d6                	mov    %edx,%esi
  361671:	89 df                	mov    %ebx,%edi
  361673:	fc                   	cld    
  361674:	f3 a4                	rep movsb %ds:(%esi),%es:(%edi)
  361676:	8b 45 08             	mov    0x8(%ebp),%eax
  361679:	5b                   	pop    %ebx
  36167a:	5e                   	pop    %esi
  36167b:	5f                   	pop    %edi
  36167c:	5d                   	pop    %ebp
  36167d:	c3                   	ret    

0036167e <mkvm>:
  36167e:	55                   	push   %ebp
  36167f:	89 e5                	mov    %esp,%ebp
  361681:	57                   	push   %edi
  361682:	81 ec b4 00 00 00    	sub    $0xb4,%esp
  361688:	c7 45 ec 00 00 00 00 	movl   $0x0,-0x14(%ebp)
  36168f:	c7 45 e8 00 00 00 00 	movl   $0x0,-0x18(%ebp)
  361696:	c7 45 f4 00 00 00 00 	movl   $0x0,-0xc(%ebp)
  36169d:	8b 45 0c             	mov    0xc(%ebp),%eax
  3616a0:	89 45 e4             	mov    %eax,-0x1c(%ebp)
  3616a3:	c7 45 e0 00 00 00 00 	movl   $0x0,-0x20(%ebp)
  3616aa:	8b 45 e4             	mov    -0x1c(%ebp),%eax
  3616ad:	8b 00                	mov    (%eax),%eax
  3616af:	50                   	push   %eax
  3616b0:	ff 75 18             	pushl  0x18(%ebp)
  3616b3:	e8 89 ff ff ff       	call   361641 <strcpy>
  3616b8:	83 c4 08             	add    $0x8,%esp
  3616bb:	83 ec 04             	sub    $0x4,%esp
  3616be:	6a 34                	push   $0x34
  3616c0:	8d 85 50 ff ff ff    	lea    -0xb0(%ebp),%eax
  3616c6:	50                   	push   %eax
  3616c7:	ff 75 08             	pushl  0x8(%ebp)
  3616ca:	e8 0f a6 00 00       	call   36bcde <read>
  3616cf:	83 c4 10             	add    $0x10,%esp
  3616d2:	89 45 dc             	mov    %eax,-0x24(%ebp)
  3616d5:	83 7d dc 00          	cmpl   $0x0,-0x24(%ebp)
  3616d9:	79 1c                	jns    3616f7 <mkvm+0x79>
  3616db:	83 ec 04             	sub    $0x4,%esp
  3616de:	6a 19                	push   $0x19
  3616e0:	68 80 cf 36 00       	push   $0x36cf80
  3616e5:	68 88 cf 36 00       	push   $0x36cf88
  3616ea:	e8 99 79 00 00       	call   369088 <printk>
  3616ef:	83 c4 10             	add    $0x10,%esp
  3616f2:	e9 72 02 00 00       	jmp    361969 <mkvm+0x2eb>
  3616f7:	8b 45 dc             	mov    -0x24(%ebp),%eax
  3616fa:	89 45 e0             	mov    %eax,-0x20(%ebp)
  3616fd:	8d 55 84             	lea    -0x7c(%ebp),%edx
  361700:	b8 00 00 00 00       	mov    $0x0,%eax
  361705:	b9 11 00 00 00       	mov    $0x11,%ecx
  36170a:	89 d7                	mov    %edx,%edi
  36170c:	f3 ab                	rep stos %eax,%es:(%edi)
  36170e:	c7 45 84 10 00 00 00 	movl   $0x10,-0x7c(%ebp)
  361715:	c7 45 88 10 00 00 00 	movl   $0x10,-0x78(%ebp)
  36171c:	c7 45 8c 10 00 00 00 	movl   $0x10,-0x74(%ebp)
  361723:	c7 45 90 10 00 00 00 	movl   $0x10,-0x70(%ebp)
  36172a:	8b 45 10             	mov    0x10(%ebp),%eax
  36172d:	89 45 ac             	mov    %eax,-0x54(%ebp)
  361730:	8b 45 e4             	mov    -0x1c(%ebp),%eax
  361733:	89 45 b0             	mov    %eax,-0x50(%ebp)
  361736:	8b 85 68 ff ff ff    	mov    -0x98(%ebp),%eax
  36173c:	89 45 b4             	mov    %eax,-0x4c(%ebp)
  36173f:	c7 45 b8 08 00 00 00 	movl   $0x8,-0x48(%ebp)
  361746:	c7 45 bc 00 02 00 00 	movl   $0x200,-0x44(%ebp)
  36174d:	83 ec 04             	sub    $0x4,%esp
  361750:	6a 44                	push   $0x44
  361752:	8d 45 84             	lea    -0x7c(%ebp),%eax
  361755:	50                   	push   %eax
  361756:	ff 75 14             	pushl  0x14(%ebp)
  361759:	e8 00 ff ff ff       	call   36165e <memcpy>
  36175e:	83 c4 10             	add    $0x10,%esp
  361761:	0f b7 85 7a ff ff ff 	movzwl -0x86(%ebp),%eax
  361768:	0f b7 d0             	movzwl %ax,%edx
  36176b:	0f b7 85 7c ff ff ff 	movzwl -0x84(%ebp),%eax
  361772:	0f b7 c0             	movzwl %ax,%eax
  361775:	0f af c2             	imul   %edx,%eax
  361778:	89 45 e8             	mov    %eax,-0x18(%ebp)
  36177b:	83 ec 0c             	sub    $0xc,%esp
  36177e:	ff 75 e8             	pushl  -0x18(%ebp)
  361781:	e8 ad 9f 00 00       	call   36b733 <kalloc>
  361786:	83 c4 10             	add    $0x10,%esp
  361789:	89 45 d8             	mov    %eax,-0x28(%ebp)
  36178c:	83 7d d8 00          	cmpl   $0x0,-0x28(%ebp)
  361790:	75 1c                	jne    3617ae <mkvm+0x130>
  361792:	83 ec 04             	sub    $0x4,%esp
  361795:	6a 26                	push   $0x26
  361797:	68 80 cf 36 00       	push   $0x36cf80
  36179c:	68 b8 cf 36 00       	push   $0x36cfb8
  3617a1:	e8 e2 78 00 00       	call   369088 <printk>
  3617a6:	83 c4 10             	add    $0x10,%esp
  3617a9:	e9 bb 01 00 00       	jmp    361969 <mkvm+0x2eb>
  3617ae:	8b 45 d8             	mov    -0x28(%ebp),%eax
  3617b1:	89 45 ec             	mov    %eax,-0x14(%ebp)
  3617b4:	8b 85 6c ff ff ff    	mov    -0x94(%ebp),%eax
  3617ba:	83 ec 04             	sub    $0x4,%esp
  3617bd:	6a 00                	push   $0x0
  3617bf:	50                   	push   %eax
  3617c0:	ff 75 08             	pushl  0x8(%ebp)
  3617c3:	e8 8e a4 00 00       	call   36bc56 <lseek>
  3617c8:	83 c4 10             	add    $0x10,%esp
  3617cb:	8b 45 e8             	mov    -0x18(%ebp),%eax
  3617ce:	83 ec 04             	sub    $0x4,%esp
  3617d1:	50                   	push   %eax
  3617d2:	ff 75 ec             	pushl  -0x14(%ebp)
  3617d5:	ff 75 08             	pushl  0x8(%ebp)
  3617d8:	e8 01 a5 00 00       	call   36bcde <read>
  3617dd:	83 c4 10             	add    $0x10,%esp
  3617e0:	89 45 d4             	mov    %eax,-0x2c(%ebp)
  3617e3:	83 7d d4 00          	cmpl   $0x0,-0x2c(%ebp)
  3617e7:	79 1c                	jns    361805 <mkvm+0x187>
  3617e9:	83 ec 04             	sub    $0x4,%esp
  3617ec:	6a 28                	push   $0x28
  3617ee:	68 80 cf 36 00       	push   $0x36cf80
  3617f3:	68 dc cf 36 00       	push   $0x36cfdc
  3617f8:	e8 8b 78 00 00       	call   369088 <printk>
  3617fd:	83 c4 10             	add    $0x10,%esp
  361800:	e9 64 01 00 00       	jmp    361969 <mkvm+0x2eb>
  361805:	8b 45 d4             	mov    -0x2c(%ebp),%eax
  361808:	89 45 e0             	mov    %eax,-0x20(%ebp)
  36180b:	83 ec 0c             	sub    $0xc,%esp
  36180e:	6a 10                	push   $0x10
  361810:	e8 1e 9f 00 00       	call   36b733 <kalloc>
  361815:	83 c4 10             	add    $0x10,%esp
  361818:	89 45 d0             	mov    %eax,-0x30(%ebp)
  36181b:	83 7d d0 00          	cmpl   $0x0,-0x30(%ebp)
  36181f:	75 1c                	jne    36183d <mkvm+0x1bf>
  361821:	83 ec 04             	sub    $0x4,%esp
  361824:	6a 2a                	push   $0x2a
  361826:	68 80 cf 36 00       	push   $0x36cf80
  36182b:	68 04 d0 36 00       	push   $0x36d004
  361830:	e8 53 78 00 00       	call   369088 <printk>
  361835:	83 c4 10             	add    $0x10,%esp
  361838:	e9 2c 01 00 00       	jmp    361969 <mkvm+0x2eb>
  36183d:	8b 45 d0             	mov    -0x30(%ebp),%eax
  361840:	89 45 f4             	mov    %eax,-0xc(%ebp)
  361843:	8b 45 f4             	mov    -0xc(%ebp),%eax
  361846:	8b 55 08             	mov    0x8(%ebp),%edx
  361849:	89 50 04             	mov    %edx,0x4(%eax)
  36184c:	8b 45 f4             	mov    -0xc(%ebp),%eax
  36184f:	c7 00 01 00 00 00    	movl   $0x1,(%eax)
  361855:	8b 45 f4             	mov    -0xc(%ebp),%eax
  361858:	83 c0 08             	add    $0x8,%eax
  36185b:	83 ec 0c             	sub    $0xc,%esp
  36185e:	50                   	push   %eax
  36185f:	e8 87 fd ff ff       	call   3615eb <INIT_LIST_HEAD>
  361864:	83 c4 10             	add    $0x10,%esp
  361867:	c7 45 f0 00 00 00 00 	movl   $0x0,-0x10(%ebp)
  36186e:	e9 de 00 00 00       	jmp    361951 <mkvm+0x2d3>
  361873:	8b 45 f0             	mov    -0x10(%ebp),%eax
  361876:	c1 e0 05             	shl    $0x5,%eax
  361879:	89 c2                	mov    %eax,%edx
  36187b:	8b 45 ec             	mov    -0x14(%ebp),%eax
  36187e:	01 d0                	add    %edx,%eax
  361880:	8b 00                	mov    (%eax),%eax
  361882:	83 f8 01             	cmp    $0x1,%eax
  361885:	0f 85 c2 00 00 00    	jne    36194d <mkvm+0x2cf>
  36188b:	83 ec 0c             	sub    $0xc,%esp
  36188e:	6a 1c                	push   $0x1c
  361890:	e8 9e 9e 00 00       	call   36b733 <kalloc>
  361895:	83 c4 10             	add    $0x10,%esp
  361898:	89 45 cc             	mov    %eax,-0x34(%ebp)
  36189b:	83 7d cc 00          	cmpl   $0x0,-0x34(%ebp)
  36189f:	75 1c                	jne    3618bd <mkvm+0x23f>
  3618a1:	83 ec 04             	sub    $0x4,%esp
  3618a4:	6a 30                	push   $0x30
  3618a6:	68 80 cf 36 00       	push   $0x36cf80
  3618ab:	68 30 d0 36 00       	push   $0x36d030
  3618b0:	e8 d3 77 00 00       	call   369088 <printk>
  3618b5:	83 c4 10             	add    $0x10,%esp
  3618b8:	e9 ac 00 00 00       	jmp    361969 <mkvm+0x2eb>
  3618bd:	8b 45 cc             	mov    -0x34(%ebp),%eax
  3618c0:	89 45 c8             	mov    %eax,-0x38(%ebp)
  3618c3:	8b 45 f0             	mov    -0x10(%ebp),%eax
  3618c6:	c1 e0 05             	shl    $0x5,%eax
  3618c9:	89 c2                	mov    %eax,%edx
  3618cb:	8b 45 ec             	mov    -0x14(%ebp),%eax
  3618ce:	01 d0                	add    %edx,%eax
  3618d0:	8b 50 18             	mov    0x18(%eax),%edx
  3618d3:	8b 45 c8             	mov    -0x38(%ebp),%eax
  3618d6:	89 10                	mov    %edx,(%eax)
  3618d8:	8b 45 f0             	mov    -0x10(%ebp),%eax
  3618db:	c1 e0 05             	shl    $0x5,%eax
  3618de:	89 c2                	mov    %eax,%edx
  3618e0:	8b 45 ec             	mov    -0x14(%ebp),%eax
  3618e3:	01 d0                	add    %edx,%eax
  3618e5:	8b 40 08             	mov    0x8(%eax),%eax
  3618e8:	89 c2                	mov    %eax,%edx
  3618ea:	8b 45 c8             	mov    -0x38(%ebp),%eax
  3618ed:	89 50 04             	mov    %edx,0x4(%eax)
  3618f0:	8b 45 f0             	mov    -0x10(%ebp),%eax
  3618f3:	c1 e0 05             	shl    $0x5,%eax
  3618f6:	89 c2                	mov    %eax,%edx
  3618f8:	8b 45 ec             	mov    -0x14(%ebp),%eax
  3618fb:	01 d0                	add    %edx,%eax
  3618fd:	8b 40 04             	mov    0x4(%eax),%eax
  361900:	89 c2                	mov    %eax,%edx
  361902:	8b 45 c8             	mov    -0x38(%ebp),%eax
  361905:	89 50 10             	mov    %edx,0x10(%eax)
  361908:	8b 45 f0             	mov    -0x10(%ebp),%eax
  36190b:	c1 e0 05             	shl    $0x5,%eax
  36190e:	89 c2                	mov    %eax,%edx
  361910:	8b 45 ec             	mov    -0x14(%ebp),%eax
  361913:	01 d0                	add    %edx,%eax
  361915:	8b 50 14             	mov    0x14(%eax),%edx
  361918:	8b 45 c8             	mov    -0x38(%ebp),%eax
  36191b:	89 50 08             	mov    %edx,0x8(%eax)
  36191e:	8b 45 f0             	mov    -0x10(%ebp),%eax
  361921:	c1 e0 05             	shl    $0x5,%eax
  361924:	89 c2                	mov    %eax,%edx
  361926:	8b 45 ec             	mov    -0x14(%ebp),%eax
  361929:	01 d0                	add    %edx,%eax
  36192b:	8b 50 10             	mov    0x10(%eax),%edx
  36192e:	8b 45 c8             	mov    -0x38(%ebp),%eax
  361931:	89 50 0c             	mov    %edx,0xc(%eax)
  361934:	8b 45 f4             	mov    -0xc(%ebp),%eax
  361937:	8d 50 08             	lea    0x8(%eax),%edx
  36193a:	8b 45 c8             	mov    -0x38(%ebp),%eax
  36193d:	83 c0 14             	add    $0x14,%eax
  361940:	83 ec 08             	sub    $0x8,%esp
  361943:	52                   	push   %edx
  361944:	50                   	push   %eax
  361945:	e8 de fc ff ff       	call   361628 <list_add>
  36194a:	83 c4 10             	add    $0x10,%esp
  36194d:	83 45 f0 01          	addl   $0x1,-0x10(%ebp)
  361951:	0f b7 85 7c ff ff ff 	movzwl -0x84(%ebp),%eax
  361958:	0f b7 c0             	movzwl %ax,%eax
  36195b:	3b 45 f0             	cmp    -0x10(%ebp),%eax
  36195e:	0f 8f 0f ff ff ff    	jg     361873 <mkvm+0x1f5>
  361964:	8b 45 f4             	mov    -0xc(%ebp),%eax
  361967:	eb 30                	jmp    361999 <mkvm+0x31b>
  361969:	83 ec 0c             	sub    $0xc,%esp
  36196c:	ff 75 f4             	pushl  -0xc(%ebp)
  36196f:	e8 2a 00 00 00       	call   36199e <delvm>
  361974:	83 c4 10             	add    $0x10,%esp
  361977:	83 7d f4 00          	cmpl   $0x0,-0xc(%ebp)
  36197b:	74 10                	je     36198d <mkvm+0x30f>
  36197d:	83 ec 08             	sub    $0x8,%esp
  361980:	6a 00                	push   $0x0
  361982:	ff 75 f4             	pushl  -0xc(%ebp)
  361985:	e8 15 9f 00 00       	call   36b89f <kfree_s>
  36198a:	83 c4 10             	add    $0x10,%esp
  36198d:	c7 45 f4 00 00 00 00 	movl   $0x0,-0xc(%ebp)
  361994:	b8 00 00 00 00       	mov    $0x0,%eax
  361999:	8b 7d fc             	mov    -0x4(%ebp),%edi
  36199c:	c9                   	leave  
  36199d:	c3                   	ret    

0036199e <delvm>:
  36199e:	55                   	push   %ebp
  36199f:	89 e5                	mov    %esp,%ebp
  3619a1:	83 ec 18             	sub    $0x18,%esp
  3619a4:	83 7d 08 00          	cmpl   $0x0,0x8(%ebp)
  3619a8:	74 79                	je     361a23 <delvm+0x85>
  3619aa:	8b 45 08             	mov    0x8(%ebp),%eax
  3619ad:	8b 00                	mov    (%eax),%eax
  3619af:	8d 50 ff             	lea    -0x1(%eax),%edx
  3619b2:	8b 45 08             	mov    0x8(%ebp),%eax
  3619b5:	89 10                	mov    %edx,(%eax)
  3619b7:	8b 45 08             	mov    0x8(%ebp),%eax
  3619ba:	8b 00                	mov    (%eax),%eax
  3619bc:	85 c0                	test   %eax,%eax
  3619be:	75 63                	jne    361a23 <delvm+0x85>
  3619c0:	8b 45 08             	mov    0x8(%ebp),%eax
  3619c3:	8b 40 04             	mov    0x4(%eax),%eax
  3619c6:	83 ec 0c             	sub    $0xc,%esp
  3619c9:	50                   	push   %eax
  3619ca:	e8 4c ab 00 00       	call   36c51b <close>
  3619cf:	83 c4 10             	add    $0x10,%esp
  3619d2:	8b 45 08             	mov    0x8(%ebp),%eax
  3619d5:	83 c0 08             	add    $0x8,%eax
  3619d8:	89 45 f0             	mov    %eax,-0x10(%ebp)
  3619db:	8b 45 f0             	mov    -0x10(%ebp),%eax
  3619de:	89 45 f4             	mov    %eax,-0xc(%ebp)
  3619e1:	eb 28                	jmp    361a0b <delvm+0x6d>
  3619e3:	8b 45 f4             	mov    -0xc(%ebp),%eax
  3619e6:	8b 00                	mov    (%eax),%eax
  3619e8:	89 45 ec             	mov    %eax,-0x14(%ebp)
  3619eb:	8b 45 f4             	mov    -0xc(%ebp),%eax
  3619ee:	89 45 e8             	mov    %eax,-0x18(%ebp)
  3619f1:	8b 45 e8             	mov    -0x18(%ebp),%eax
  3619f4:	83 e8 14             	sub    $0x14,%eax
  3619f7:	83 ec 08             	sub    $0x8,%esp
  3619fa:	6a 00                	push   $0x0
  3619fc:	50                   	push   %eax
  3619fd:	e8 9d 9e 00 00       	call   36b89f <kfree_s>
  361a02:	83 c4 10             	add    $0x10,%esp
  361a05:	8b 45 ec             	mov    -0x14(%ebp),%eax
  361a08:	89 45 f4             	mov    %eax,-0xc(%ebp)
  361a0b:	8b 45 f4             	mov    -0xc(%ebp),%eax
  361a0e:	3b 45 f0             	cmp    -0x10(%ebp),%eax
  361a11:	75 d0                	jne    3619e3 <delvm+0x45>
  361a13:	83 ec 08             	sub    $0x8,%esp
  361a16:	6a 00                	push   $0x0
  361a18:	ff 75 08             	pushl  0x8(%ebp)
  361a1b:	e8 7f 9e 00 00       	call   36b89f <kfree_s>
  361a20:	83 c4 10             	add    $0x10,%esp
  361a23:	c9                   	leave  
  361a24:	c3                   	ret    

00361a25 <copyvm>:
  361a25:	55                   	push   %ebp
  361a26:	89 e5                	mov    %esp,%ebp
  361a28:	83 7d 08 00          	cmpl   $0x0,0x8(%ebp)
  361a2c:	74 0d                	je     361a3b <copyvm+0x16>
  361a2e:	8b 45 08             	mov    0x8(%ebp),%eax
  361a31:	8b 00                	mov    (%eax),%eax
  361a33:	8d 50 ff             	lea    -0x1(%eax),%edx
  361a36:	8b 45 08             	mov    0x8(%ebp),%eax
  361a39:	89 10                	mov    %edx,(%eax)
  361a3b:	5d                   	pop    %ebp
  361a3c:	c3                   	ret    

00361a3d <clr>:
  361a3d:	55                   	push   %ebp
  361a3e:	89 e5                	mov    %esp,%ebp
  361a40:	83 ec 10             	sub    $0x10,%esp
  361a43:	8b 55 0c             	mov    0xc(%ebp),%edx
  361a46:	8b 45 08             	mov    0x8(%ebp),%eax
  361a49:	8b 40 04             	mov    0x4(%eax),%eax
  361a4c:	29 c2                	sub    %eax,%edx
  361a4e:	89 d0                	mov    %edx,%eax
  361a50:	25 00 f0 ff ff       	and    $0xfffff000,%eax
  361a55:	89 45 fc             	mov    %eax,-0x4(%ebp)
  361a58:	8b 55 fc             	mov    -0x4(%ebp),%edx
  361a5b:	8b 45 08             	mov    0x8(%ebp),%eax
  361a5e:	8b 40 0c             	mov    0xc(%eax),%eax
  361a61:	39 c2                	cmp    %eax,%edx
  361a63:	76 07                	jbe    361a6c <clr+0x2f>
  361a65:	b8 00 00 00 00       	mov    $0x0,%eax
  361a6a:	eb 26                	jmp    361a92 <clr+0x55>
  361a6c:	8b 45 fc             	mov    -0x4(%ebp),%eax
  361a6f:	05 00 10 00 00       	add    $0x1000,%eax
  361a74:	89 c2                	mov    %eax,%edx
  361a76:	8b 45 08             	mov    0x8(%ebp),%eax
  361a79:	8b 40 0c             	mov    0xc(%eax),%eax
  361a7c:	39 c2                	cmp    %eax,%edx
  361a7e:	76 0d                	jbe    361a8d <clr+0x50>
  361a80:	8b 45 08             	mov    0x8(%ebp),%eax
  361a83:	8b 40 0c             	mov    0xc(%eax),%eax
  361a86:	25 ff 0f 00 00       	and    $0xfff,%eax
  361a8b:	eb 05                	jmp    361a92 <clr+0x55>
  361a8d:	b8 00 10 00 00       	mov    $0x1000,%eax
  361a92:	c9                   	leave  
  361a93:	c3                   	ret    

00361a94 <dovm>:
  361a94:	55                   	push   %ebp
  361a95:	89 e5                	mov    %esp,%ebp
  361a97:	83 ec 28             	sub    $0x28,%esp
  361a9a:	83 7d 08 00          	cmpl   $0x0,0x8(%ebp)
  361a9e:	0f 84 23 01 00 00    	je     361bc7 <dovm+0x133>
  361aa4:	e8 6c 97 00 00       	call   36b215 <get_free_page>
  361aa9:	89 45 f0             	mov    %eax,-0x10(%ebp)
  361aac:	83 7d f0 00          	cmpl   $0x0,-0x10(%ebp)
  361ab0:	75 1c                	jne    361ace <dovm+0x3a>
  361ab2:	83 ec 04             	sub    $0x4,%esp
  361ab5:	6a 60                	push   $0x60
  361ab7:	68 80 cf 36 00       	push   $0x36cf80
  361abc:	68 58 d0 36 00       	push   $0x36d058
  361ac1:	e8 c2 75 00 00       	call   369088 <printk>
  361ac6:	83 c4 10             	add    $0x10,%esp
  361ac9:	e9 f9 00 00 00       	jmp    361bc7 <dovm+0x133>
  361ace:	8b 45 f0             	mov    -0x10(%ebp),%eax
  361ad1:	89 45 ec             	mov    %eax,-0x14(%ebp)
  361ad4:	c7 45 e8 00 00 00 00 	movl   $0x0,-0x18(%ebp)
  361adb:	8b 45 08             	mov    0x8(%ebp),%eax
  361ade:	83 c0 08             	add    $0x8,%eax
  361ae1:	89 45 e4             	mov    %eax,-0x1c(%ebp)
  361ae4:	8b 45 e4             	mov    -0x1c(%ebp),%eax
  361ae7:	8b 00                	mov    (%eax),%eax
  361ae9:	89 45 f4             	mov    %eax,-0xc(%ebp)
  361aec:	e9 c5 00 00 00       	jmp    361bb6 <dovm+0x122>
  361af1:	8b 45 f4             	mov    -0xc(%ebp),%eax
  361af4:	89 45 e0             	mov    %eax,-0x20(%ebp)
  361af7:	8b 45 e0             	mov    -0x20(%ebp),%eax
  361afa:	83 e8 14             	sub    $0x14,%eax
  361afd:	89 45 dc             	mov    %eax,-0x24(%ebp)
  361b00:	8b 45 dc             	mov    -0x24(%ebp),%eax
  361b03:	8b 40 04             	mov    0x4(%eax),%eax
  361b06:	3b 45 0c             	cmp    0xc(%ebp),%eax
  361b09:	0f 87 9f 00 00 00    	ja     361bae <dovm+0x11a>
  361b0f:	8b 45 dc             	mov    -0x24(%ebp),%eax
  361b12:	8b 50 04             	mov    0x4(%eax),%edx
  361b15:	8b 45 dc             	mov    -0x24(%ebp),%eax
  361b18:	8b 40 08             	mov    0x8(%eax),%eax
  361b1b:	01 d0                	add    %edx,%eax
  361b1d:	3b 45 0c             	cmp    0xc(%ebp),%eax
  361b20:	0f 86 88 00 00 00    	jbe    361bae <dovm+0x11a>
  361b26:	83 ec 08             	sub    $0x8,%esp
  361b29:	ff 75 0c             	pushl  0xc(%ebp)
  361b2c:	ff 75 dc             	pushl  -0x24(%ebp)
  361b2f:	e8 09 ff ff ff       	call   361a3d <clr>
  361b34:	83 c4 10             	add    $0x10,%esp
  361b37:	89 45 e8             	mov    %eax,-0x18(%ebp)
  361b3a:	83 7d e8 00          	cmpl   $0x0,-0x18(%ebp)
  361b3e:	74 6c                	je     361bac <dovm+0x118>
  361b40:	8b 45 dc             	mov    -0x24(%ebp),%eax
  361b43:	8b 50 10             	mov    0x10(%eax),%edx
  361b46:	8b 4d 0c             	mov    0xc(%ebp),%ecx
  361b49:	8b 45 dc             	mov    -0x24(%ebp),%eax
  361b4c:	8b 40 04             	mov    0x4(%eax),%eax
  361b4f:	29 c1                	sub    %eax,%ecx
  361b51:	89 c8                	mov    %ecx,%eax
  361b53:	25 00 f0 ff ff       	and    $0xfffff000,%eax
  361b58:	01 c2                	add    %eax,%edx
  361b5a:	8b 45 08             	mov    0x8(%ebp),%eax
  361b5d:	8b 40 04             	mov    0x4(%eax),%eax
  361b60:	83 ec 04             	sub    $0x4,%esp
  361b63:	6a 00                	push   $0x0
  361b65:	52                   	push   %edx
  361b66:	50                   	push   %eax
  361b67:	e8 ea a0 00 00       	call   36bc56 <lseek>
  361b6c:	83 c4 10             	add    $0x10,%esp
  361b6f:	8b 55 e8             	mov    -0x18(%ebp),%edx
  361b72:	8b 45 08             	mov    0x8(%ebp),%eax
  361b75:	8b 40 04             	mov    0x4(%eax),%eax
  361b78:	83 ec 04             	sub    $0x4,%esp
  361b7b:	52                   	push   %edx
  361b7c:	ff 75 ec             	pushl  -0x14(%ebp)
  361b7f:	50                   	push   %eax
  361b80:	e8 59 a1 00 00       	call   36bcde <read>
  361b85:	83 c4 10             	add    $0x10,%esp
  361b88:	89 45 d8             	mov    %eax,-0x28(%ebp)
  361b8b:	83 7d d8 00          	cmpl   $0x0,-0x28(%ebp)
  361b8f:	79 19                	jns    361baa <dovm+0x116>
  361b91:	83 ec 04             	sub    $0x4,%esp
  361b94:	6a 69                	push   $0x69
  361b96:	68 80 cf 36 00       	push   $0x36cf80
  361b9b:	68 7c d0 36 00       	push   $0x36d07c
  361ba0:	e8 e3 74 00 00       	call   369088 <printk>
  361ba5:	83 c4 10             	add    $0x10,%esp
  361ba8:	eb 1d                	jmp    361bc7 <dovm+0x133>
  361baa:	eb 16                	jmp    361bc2 <dovm+0x12e>
  361bac:	eb 14                	jmp    361bc2 <dovm+0x12e>
  361bae:	8b 45 f4             	mov    -0xc(%ebp),%eax
  361bb1:	8b 00                	mov    (%eax),%eax
  361bb3:	89 45 f4             	mov    %eax,-0xc(%ebp)
  361bb6:	8b 45 f4             	mov    -0xc(%ebp),%eax
  361bb9:	3b 45 e4             	cmp    -0x1c(%ebp),%eax
  361bbc:	0f 85 2f ff ff ff    	jne    361af1 <dovm+0x5d>
  361bc2:	8b 45 ec             	mov    -0x14(%ebp),%eax
  361bc5:	eb 05                	jmp    361bcc <dovm+0x138>
  361bc7:	b8 00 00 00 00       	mov    $0x0,%eax
  361bcc:	c9                   	leave  
  361bcd:	c3                   	ret    

00361bce <strcpy>:
  361bce:	55                   	push   %ebp
  361bcf:	89 e5                	mov    %esp,%ebp
  361bd1:	57                   	push   %edi
  361bd2:	56                   	push   %esi
  361bd3:	8b 55 0c             	mov    0xc(%ebp),%edx
  361bd6:	8b 4d 08             	mov    0x8(%ebp),%ecx
  361bd9:	89 d6                	mov    %edx,%esi
  361bdb:	89 cf                	mov    %ecx,%edi
  361bdd:	fc                   	cld    
  361bde:	ac                   	lods   %ds:(%esi),%al
  361bdf:	aa                   	stos   %al,%es:(%edi)
  361be0:	84 c0                	test   %al,%al
  361be2:	75 fa                	jne    361bde <strcpy+0x10>
  361be4:	8b 45 08             	mov    0x8(%ebp),%eax
  361be7:	5e                   	pop    %esi
  361be8:	5f                   	pop    %edi
  361be9:	5d                   	pop    %ebp
  361bea:	c3                   	ret    

00361beb <memcpy>:
  361beb:	55                   	push   %ebp
  361bec:	89 e5                	mov    %esp,%ebp
  361bee:	57                   	push   %edi
  361bef:	56                   	push   %esi
  361bf0:	53                   	push   %ebx
  361bf1:	8b 45 10             	mov    0x10(%ebp),%eax
  361bf4:	8b 55 0c             	mov    0xc(%ebp),%edx
  361bf7:	8b 5d 08             	mov    0x8(%ebp),%ebx
  361bfa:	89 c1                	mov    %eax,%ecx
  361bfc:	89 d6                	mov    %edx,%esi
  361bfe:	89 df                	mov    %ebx,%edi
  361c00:	fc                   	cld    
  361c01:	f3 a4                	rep movsb %ds:(%esi),%es:(%edi)
  361c03:	8b 45 08             	mov    0x8(%ebp),%eax
  361c06:	5b                   	pop    %ebx
  361c07:	5e                   	pop    %esi
  361c08:	5f                   	pop    %edi
  361c09:	5d                   	pop    %ebp
  361c0a:	c3                   	ret    

00361c0b <memset>:
  361c0b:	55                   	push   %ebp
  361c0c:	89 e5                	mov    %esp,%ebp
  361c0e:	57                   	push   %edi
  361c0f:	8b 45 0c             	mov    0xc(%ebp),%eax
  361c12:	8b 55 08             	mov    0x8(%ebp),%edx
  361c15:	8b 4d 10             	mov    0x10(%ebp),%ecx
  361c18:	89 d7                	mov    %edx,%edi
  361c1a:	fc                   	cld    
  361c1b:	f3 aa                	rep stos %al,%es:(%edi)
  361c1d:	8b 45 08             	mov    0x8(%ebp),%eax
  361c20:	5f                   	pop    %edi
  361c21:	5d                   	pop    %ebp
  361c22:	c3                   	ret    

00361c23 <share_items>:
  361c23:	55                   	push   %ebp
  361c24:	89 e5                	mov    %esp,%ebp
  361c26:	83 ec 18             	sub    $0x18,%esp
  361c29:	c7 45 f4 00 00 00 00 	movl   $0x0,-0xc(%ebp)
  361c30:	eb 3a                	jmp    361c6c <share_items+0x49>
  361c32:	8b 45 f4             	mov    -0xc(%ebp),%eax
  361c35:	8d 14 85 00 00 00 00 	lea    0x0(,%eax,4),%edx
  361c3c:	8b 45 08             	mov    0x8(%ebp),%eax
  361c3f:	01 d0                	add    %edx,%eax
  361c41:	0f b6 00             	movzbl (%eax),%eax
  361c44:	83 e0 01             	and    $0x1,%eax
  361c47:	84 c0                	test   %al,%al
  361c49:	74 1d                	je     361c68 <share_items+0x45>
  361c4b:	8b 45 f4             	mov    -0xc(%ebp),%eax
  361c4e:	8d 14 85 00 00 00 00 	lea    0x0(,%eax,4),%edx
  361c55:	8b 45 08             	mov    0x8(%ebp),%eax
  361c58:	01 d0                	add    %edx,%eax
  361c5a:	8b 00                	mov    (%eax),%eax
  361c5c:	83 ec 0c             	sub    $0xc,%esp
  361c5f:	50                   	push   %eax
  361c60:	e8 83 96 00 00       	call   36b2e8 <share_page>
  361c65:	83 c4 10             	add    $0x10,%esp
  361c68:	83 45 f4 01          	addl   $0x1,-0xc(%ebp)
  361c6c:	81 7d f4 ff 03 00 00 	cmpl   $0x3ff,-0xc(%ebp)
  361c73:	7e bd                	jle    361c32 <share_items+0xf>
  361c75:	c9                   	leave  
  361c76:	c3                   	ret    

00361c77 <copy_dir>:
  361c77:	55                   	push   %ebp
  361c78:	89 e5                	mov    %esp,%ebp
  361c7a:	57                   	push   %edi
  361c7b:	56                   	push   %esi
  361c7c:	83 ec 10             	sub    $0x10,%esp
  361c7f:	c7 45 f0 00 00 00 00 	movl   $0x0,-0x10(%ebp)
  361c86:	e8 8a 95 00 00       	call   36b215 <get_free_page>
  361c8b:	89 45 f0             	mov    %eax,-0x10(%ebp)
  361c8e:	83 7d f0 00          	cmpl   $0x0,-0x10(%ebp)
  361c92:	75 10                	jne    361ca4 <copy_dir+0x2d>
  361c94:	83 ec 0c             	sub    $0xc,%esp
  361c97:	68 b0 d0 36 00       	push   $0x36d0b0
  361c9c:	e8 cb 73 00 00       	call   36906c <panic>
  361ca1:	83 c4 10             	add    $0x10,%esp
  361ca4:	c7 45 f4 03 00 00 00 	movl   $0x3,-0xc(%ebp)
  361cab:	eb 73                	jmp    361d20 <copy_dir+0xa9>
  361cad:	8b 45 f4             	mov    -0xc(%ebp),%eax
  361cb0:	8d 14 85 00 00 00 00 	lea    0x0(,%eax,4),%edx
  361cb7:	8b 45 08             	mov    0x8(%ebp),%eax
  361cba:	01 d0                	add    %edx,%eax
  361cbc:	0f b6 10             	movzbl (%eax),%edx
  361cbf:	83 e2 fd             	and    $0xfffffffd,%edx
  361cc2:	88 10                	mov    %dl,(%eax)
  361cc4:	8b 45 f4             	mov    -0xc(%ebp),%eax
  361cc7:	8d 14 85 00 00 00 00 	lea    0x0(,%eax,4),%edx
  361cce:	8b 45 08             	mov    0x8(%ebp),%eax
  361cd1:	01 d0                	add    %edx,%eax
  361cd3:	0f b6 00             	movzbl (%eax),%eax
  361cd6:	83 e0 01             	and    $0x1,%eax
  361cd9:	84 c0                	test   %al,%al
  361cdb:	74 3f                	je     361d1c <copy_dir+0xa5>
  361cdd:	8b 45 f4             	mov    -0xc(%ebp),%eax
  361ce0:	8d 14 85 00 00 00 00 	lea    0x0(,%eax,4),%edx
  361ce7:	8b 45 08             	mov    0x8(%ebp),%eax
  361cea:	01 d0                	add    %edx,%eax
  361cec:	8b 00                	mov    (%eax),%eax
  361cee:	25 00 f0 ff ff       	and    $0xfffff000,%eax
  361cf3:	83 ec 0c             	sub    $0xc,%esp
  361cf6:	50                   	push   %eax
  361cf7:	e8 27 ff ff ff       	call   361c23 <share_items>
  361cfc:	83 c4 10             	add    $0x10,%esp
  361cff:	8b 45 f4             	mov    -0xc(%ebp),%eax
  361d02:	8d 14 85 00 00 00 00 	lea    0x0(,%eax,4),%edx
  361d09:	8b 45 08             	mov    0x8(%ebp),%eax
  361d0c:	01 d0                	add    %edx,%eax
  361d0e:	8b 00                	mov    (%eax),%eax
  361d10:	83 ec 0c             	sub    $0xc,%esp
  361d13:	50                   	push   %eax
  361d14:	e8 cf 95 00 00       	call   36b2e8 <share_page>
  361d19:	83 c4 10             	add    $0x10,%esp
  361d1c:	83 45 f4 01          	addl   $0x1,-0xc(%ebp)
  361d20:	81 7d f4 ff 03 00 00 	cmpl   $0x3ff,-0xc(%ebp)
  361d27:	7e 84                	jle    361cad <copy_dir+0x36>
  361d29:	8b 45 08             	mov    0x8(%ebp),%eax
  361d2c:	8b 55 f0             	mov    -0x10(%ebp),%edx
  361d2f:	b9 00 04 00 00       	mov    $0x400,%ecx
  361d34:	89 c6                	mov    %eax,%esi
  361d36:	89 d7                	mov    %edx,%edi
  361d38:	fc                   	cld    
  361d39:	f3 a5                	rep movsl %ds:(%esi),%es:(%edi)
  361d3b:	8b 45 f0             	mov    -0x10(%ebp),%eax
  361d3e:	8d 65 f8             	lea    -0x8(%ebp),%esp
  361d41:	5e                   	pop    %esi
  361d42:	5f                   	pop    %edi
  361d43:	5d                   	pop    %ebp
  361d44:	c3                   	ret    

00361d45 <put_item>:
  361d45:	55                   	push   %ebp
  361d46:	89 e5                	mov    %esp,%ebp
  361d48:	8b 45 10             	mov    0x10(%ebp),%eax
  361d4b:	8d 14 85 00 00 00 00 	lea    0x0(,%eax,4),%edx
  361d52:	8b 45 08             	mov    0x8(%ebp),%eax
  361d55:	01 d0                	add    %edx,%eax
  361d57:	8b 55 0c             	mov    0xc(%ebp),%edx
  361d5a:	81 e2 00 f0 ff ff    	and    $0xfffff000,%edx
  361d60:	83 ca 07             	or     $0x7,%edx
  361d63:	89 10                	mov    %edx,(%eax)
  361d65:	5d                   	pop    %ebp
  361d66:	c3                   	ret    

00361d67 <clone_space>:
  361d67:	55                   	push   %ebp
  361d68:	89 e5                	mov    %esp,%ebp
  361d6a:	57                   	push   %edi
  361d6b:	56                   	push   %esi
  361d6c:	83 ec 10             	sub    $0x10,%esp
  361d6f:	c7 45 f4 00 00 00 00 	movl   $0x0,-0xc(%ebp)
  361d76:	c7 45 f0 00 00 00 00 	movl   $0x0,-0x10(%ebp)
  361d7d:	8b 45 08             	mov    0x8(%ebp),%eax
  361d80:	8b 00                	mov    (%eax),%eax
  361d82:	25 00 f0 ff ff       	and    $0xfffff000,%eax
  361d87:	89 45 ec             	mov    %eax,-0x14(%ebp)
  361d8a:	83 ec 0c             	sub    $0xc,%esp
  361d8d:	ff 75 08             	pushl  0x8(%ebp)
  361d90:	e8 e2 fe ff ff       	call   361c77 <copy_dir>
  361d95:	83 c4 10             	add    $0x10,%esp
  361d98:	89 45 f4             	mov    %eax,-0xc(%ebp)
  361d9b:	e8 75 94 00 00       	call   36b215 <get_free_page>
  361da0:	89 45 e8             	mov    %eax,-0x18(%ebp)
  361da3:	83 7d e8 00          	cmpl   $0x0,-0x18(%ebp)
  361da7:	75 17                	jne    361dc0 <clone_space+0x59>
  361da9:	83 ec 04             	sub    $0x4,%esp
  361dac:	6a 49                	push   $0x49
  361dae:	68 ce d0 36 00       	push   $0x36d0ce
  361db3:	68 d8 d0 36 00       	push   $0x36d0d8
  361db8:	e8 cb 72 00 00       	call   369088 <printk>
  361dbd:	83 c4 10             	add    $0x10,%esp
  361dc0:	8b 45 e8             	mov    -0x18(%ebp),%eax
  361dc3:	89 45 f0             	mov    %eax,-0x10(%ebp)
  361dc6:	8b 45 ec             	mov    -0x14(%ebp),%eax
  361dc9:	8b 55 f0             	mov    -0x10(%ebp),%edx
  361dcc:	b9 00 04 00 00       	mov    $0x400,%ecx
  361dd1:	89 c6                	mov    %eax,%esi
  361dd3:	89 d7                	mov    %edx,%edi
  361dd5:	fc                   	cld    
  361dd6:	f3 a5                	rep movsl %ds:(%esi),%es:(%edi)
  361dd8:	6a 07                	push   $0x7
  361dda:	6a 02                	push   $0x2
  361ddc:	ff 75 0c             	pushl  0xc(%ebp)
  361ddf:	ff 75 f0             	pushl  -0x10(%ebp)
  361de2:	e8 5e ff ff ff       	call   361d45 <put_item>
  361de7:	83 c4 10             	add    $0x10,%esp
  361dea:	6a 07                	push   $0x7
  361dec:	6a 00                	push   $0x0
  361dee:	ff 75 f0             	pushl  -0x10(%ebp)
  361df1:	ff 75 f4             	pushl  -0xc(%ebp)
  361df4:	e8 4c ff ff ff       	call   361d45 <put_item>
  361df9:	83 c4 10             	add    $0x10,%esp
  361dfc:	8b 45 f4             	mov    -0xc(%ebp),%eax
  361dff:	8d 65 f8             	lea    -0x8(%ebp),%esp
  361e02:	5e                   	pop    %esi
  361e03:	5f                   	pop    %edi
  361e04:	5d                   	pop    %ebp
  361e05:	c3                   	ret    

00361e06 <clone>:
  361e06:	55                   	push   %ebp
  361e07:	89 e5                	mov    %esp,%ebp
  361e09:	57                   	push   %edi
  361e0a:	56                   	push   %esi
  361e0b:	53                   	push   %ebx
  361e0c:	83 ec 2c             	sub    $0x2c,%esp
  361e0f:	8b 45 08             	mov    0x8(%ebp),%eax
  361e12:	89 45 e4             	mov    %eax,-0x1c(%ebp)
  361e15:	83 7d e4 02          	cmpl   $0x2,-0x1c(%ebp)
  361e19:	7f 18                	jg     361e33 <clone+0x2d>
  361e1b:	83 7d e4 00          	cmpl   $0x0,-0x1c(%ebp)
  361e1f:	78 12                	js     361e33 <clone+0x2d>
  361e21:	a1 c4 37 37 00       	mov    0x3737c4,%eax
  361e26:	8b 55 08             	mov    0x8(%ebp),%edx
  361e29:	83 c2 0c             	add    $0xc,%edx
  361e2c:	8b 44 90 04          	mov    0x4(%eax,%edx,4),%eax
  361e30:	89 45 e4             	mov    %eax,-0x1c(%ebp)
  361e33:	8b 45 e4             	mov    -0x1c(%ebp),%eax
  361e36:	8b 04 85 00 3d 37 00 	mov    0x373d00(,%eax,4),%eax
  361e3d:	89 45 e0             	mov    %eax,-0x20(%ebp)
  361e40:	8b 45 e0             	mov    -0x20(%ebp),%eax
  361e43:	89 45 dc             	mov    %eax,-0x24(%ebp)
  361e46:	83 ec 0c             	sub    $0xc,%esp
  361e49:	ff 75 dc             	pushl  -0x24(%ebp)
  361e4c:	e8 0c 98 00 00       	call   36b65d <cloneObject>
  361e51:	83 c4 10             	add    $0x10,%esp
  361e54:	89 45 d8             	mov    %eax,-0x28(%ebp)
  361e57:	8b 45 d8             	mov    -0x28(%ebp),%eax
  361e5a:	89 45 d4             	mov    %eax,-0x2c(%ebp)
  361e5d:	83 7d d4 00          	cmpl   $0x0,-0x2c(%ebp)
  361e61:	75 23                	jne    361e86 <clone+0x80>
  361e63:	b8 02 00 00 00       	mov    $0x2,%eax
  361e68:	8b 5d 08             	mov    0x8(%ebp),%ebx
  361e6b:	b9 ff ff ff ff       	mov    $0xffffffff,%ecx
  361e70:	ba f4 ff ff ff       	mov    $0xfffffff4,%edx
  361e75:	be 00 00 00 00       	mov    $0x0,%esi
  361e7a:	bf 00 00 00 00       	mov    $0x0,%edi
  361e7f:	cd 80                	int    $0x80
  361e81:	89 45 d0             	mov    %eax,-0x30(%ebp)
  361e84:	eb 7c                	jmp    361f02 <clone+0xfc>
  361e86:	8b 45 dc             	mov    -0x24(%ebp),%eax
  361e89:	8b 80 04 01 00 00    	mov    0x104(%eax),%eax
  361e8f:	83 ec 08             	sub    $0x8,%esp
  361e92:	ff 75 d4             	pushl  -0x2c(%ebp)
  361e95:	50                   	push   %eax
  361e96:	e8 cc fe ff ff       	call   361d67 <clone_space>
  361e9b:	83 c4 10             	add    $0x10,%esp
  361e9e:	89 c2                	mov    %eax,%edx
  361ea0:	8b 45 d4             	mov    -0x2c(%ebp),%eax
  361ea3:	89 90 04 01 00 00    	mov    %edx,0x104(%eax)
  361ea9:	8b 45 dc             	mov    -0x24(%ebp),%eax
  361eac:	8b 80 f0 00 00 00    	mov    0xf0(%eax),%eax
  361eb2:	83 ec 0c             	sub    $0xc,%esp
  361eb5:	50                   	push   %eax
  361eb6:	e8 6a fb ff ff       	call   361a25 <copyvm>
  361ebb:	83 c4 10             	add    $0x10,%esp
  361ebe:	8b 45 d4             	mov    -0x2c(%ebp),%eax
  361ec1:	8b 18                	mov    (%eax),%ebx
  361ec3:	b8 02 00 00 00       	mov    $0x2,%eax
  361ec8:	b9 00 00 00 00       	mov    $0x0,%ecx
  361ecd:	ba 00 00 00 00       	mov    $0x0,%edx
  361ed2:	be 00 00 00 00       	mov    $0x0,%esi
  361ed7:	bf 00 00 00 00       	mov    $0x0,%edi
  361edc:	cd 80                	int    $0x80
  361ede:	89 45 cc             	mov    %eax,-0x34(%ebp)
  361ee1:	8b 45 d4             	mov    -0x2c(%ebp),%eax
  361ee4:	8b 08                	mov    (%eax),%ecx
  361ee6:	b8 02 00 00 00       	mov    $0x2,%eax
  361eeb:	8b 5d 08             	mov    0x8(%ebp),%ebx
  361eee:	ba 00 00 00 00       	mov    $0x0,%edx
  361ef3:	be 00 00 00 00       	mov    $0x0,%esi
  361ef8:	bf 00 00 00 00       	mov    $0x0,%edi
  361efd:	cd 80                	int    $0x80
  361eff:	89 45 c8             	mov    %eax,-0x38(%ebp)
  361f02:	8d 65 f4             	lea    -0xc(%ebp),%esp
  361f05:	5b                   	pop    %ebx
  361f06:	5e                   	pop    %esi
  361f07:	5f                   	pop    %edi
  361f08:	5d                   	pop    %ebp
  361f09:	c3                   	ret    

00361f0a <delete_table>:
  361f0a:	55                   	push   %ebp
  361f0b:	89 e5                	mov    %esp,%ebp
  361f0d:	83 ec 18             	sub    $0x18,%esp
  361f10:	c7 45 f4 00 00 00 00 	movl   $0x0,-0xc(%ebp)
  361f17:	e9 8d 00 00 00       	jmp    361fa9 <delete_table+0x9f>
  361f1c:	8b 45 f4             	mov    -0xc(%ebp),%eax
  361f1f:	8d 14 85 00 00 00 00 	lea    0x0(,%eax,4),%edx
  361f26:	8b 45 08             	mov    0x8(%ebp),%eax
  361f29:	01 d0                	add    %edx,%eax
  361f2b:	0f b6 00             	movzbl (%eax),%eax
  361f2e:	83 e0 01             	and    $0x1,%eax
  361f31:	84 c0                	test   %al,%al
  361f33:	74 70                	je     361fa5 <delete_table+0x9b>
  361f35:	8b 45 f4             	mov    -0xc(%ebp),%eax
  361f38:	8d 14 85 00 00 00 00 	lea    0x0(,%eax,4),%edx
  361f3f:	8b 45 08             	mov    0x8(%ebp),%eax
  361f42:	01 d0                	add    %edx,%eax
  361f44:	8b 00                	mov    (%eax),%eax
  361f46:	83 ec 0c             	sub    $0xc,%esp
  361f49:	50                   	push   %eax
  361f4a:	e8 f6 93 00 00       	call   36b345 <free_page>
  361f4f:	83 c4 10             	add    $0x10,%esp
  361f52:	89 45 f0             	mov    %eax,-0x10(%ebp)
  361f55:	83 7d f0 ff          	cmpl   $0xffffffff,-0x10(%ebp)
  361f59:	75 4a                	jne    361fa5 <delete_table+0x9b>
  361f5b:	83 ec 04             	sub    $0x4,%esp
  361f5e:	6a 64                	push   $0x64
  361f60:	68 ce d0 36 00       	push   $0x36d0ce
  361f65:	68 fc d0 36 00       	push   $0x36d0fc
  361f6a:	e8 19 71 00 00       	call   369088 <printk>
  361f6f:	83 c4 10             	add    $0x10,%esp
  361f72:	8b 45 f4             	mov    -0xc(%ebp),%eax
  361f75:	8d 14 85 00 00 00 00 	lea    0x0(,%eax,4),%edx
  361f7c:	8b 45 08             	mov    0x8(%ebp),%eax
  361f7f:	01 d0                	add    %edx,%eax
  361f81:	8b 00                	mov    (%eax),%eax
  361f83:	83 ec 0c             	sub    $0xc,%esp
  361f86:	6a 64                	push   $0x64
  361f88:	68 ce d0 36 00       	push   $0x36d0ce
  361f8d:	50                   	push   %eax
  361f8e:	ff 75 f4             	pushl  -0xc(%ebp)
  361f91:	68 2c d1 36 00       	push   $0x36d12c
  361f96:	e8 ed 70 00 00       	call   369088 <printk>
  361f9b:	83 c4 20             	add    $0x20,%esp
  361f9e:	b8 ff ff ff ff       	mov    $0xffffffff,%eax
  361fa3:	eb 16                	jmp    361fbb <delete_table+0xb1>
  361fa5:	83 45 f4 01          	addl   $0x1,-0xc(%ebp)
  361fa9:	81 7d f4 ff 03 00 00 	cmpl   $0x3ff,-0xc(%ebp)
  361fb0:	0f 8e 66 ff ff ff    	jle    361f1c <delete_table+0x12>
  361fb6:	b8 00 00 00 00       	mov    $0x0,%eax
  361fbb:	c9                   	leave  
  361fbc:	c3                   	ret    

00361fbd <_delete>:
  361fbd:	55                   	push   %ebp
  361fbe:	89 e5                	mov    %esp,%ebp
  361fc0:	83 ec 18             	sub    $0x18,%esp
  361fc3:	c7 45 f4 03 00 00 00 	movl   $0x3,-0xc(%ebp)
  361fca:	e9 bd 00 00 00       	jmp    36208c <_delete+0xcf>
  361fcf:	8b 45 f4             	mov    -0xc(%ebp),%eax
  361fd2:	8d 14 85 00 00 00 00 	lea    0x0(,%eax,4),%edx
  361fd9:	8b 45 08             	mov    0x8(%ebp),%eax
  361fdc:	01 d0                	add    %edx,%eax
  361fde:	0f b6 00             	movzbl (%eax),%eax
  361fe1:	83 e0 01             	and    $0x1,%eax
  361fe4:	84 c0                	test   %al,%al
  361fe6:	0f 84 9c 00 00 00    	je     362088 <_delete+0xcb>
  361fec:	8b 45 f4             	mov    -0xc(%ebp),%eax
  361fef:	8d 14 85 00 00 00 00 	lea    0x0(,%eax,4),%edx
  361ff6:	8b 45 08             	mov    0x8(%ebp),%eax
  361ff9:	01 d0                	add    %edx,%eax
  361ffb:	8b 00                	mov    (%eax),%eax
  361ffd:	25 00 f0 ff ff       	and    $0xfffff000,%eax
  362002:	83 ec 0c             	sub    $0xc,%esp
  362005:	50                   	push   %eax
  362006:	e8 ff fe ff ff       	call   361f0a <delete_table>
  36200b:	83 c4 10             	add    $0x10,%esp
  36200e:	83 f8 ff             	cmp    $0xffffffff,%eax
  362011:	74 22                	je     362035 <_delete+0x78>
  362013:	8b 45 f4             	mov    -0xc(%ebp),%eax
  362016:	8d 14 85 00 00 00 00 	lea    0x0(,%eax,4),%edx
  36201d:	8b 45 08             	mov    0x8(%ebp),%eax
  362020:	01 d0                	add    %edx,%eax
  362022:	8b 00                	mov    (%eax),%eax
  362024:	83 ec 0c             	sub    $0xc,%esp
  362027:	50                   	push   %eax
  362028:	e8 18 93 00 00       	call   36b345 <free_page>
  36202d:	83 c4 10             	add    $0x10,%esp
  362030:	83 f8 ff             	cmp    $0xffffffff,%eax
  362033:	75 3c                	jne    362071 <_delete+0xb4>
  362035:	8b 45 f4             	mov    -0xc(%ebp),%eax
  362038:	8d 14 85 00 00 00 00 	lea    0x0(,%eax,4),%edx
  36203f:	8b 45 08             	mov    0x8(%ebp),%eax
  362042:	01 d0                	add    %edx,%eax
  362044:	8b 00                	mov    (%eax),%eax
  362046:	83 ec 0c             	sub    $0xc,%esp
  362049:	6a 71                	push   $0x71
  36204b:	68 ce d0 36 00       	push   $0x36d0ce
  362050:	50                   	push   %eax
  362051:	ff 75 f4             	pushl  -0xc(%ebp)
  362054:	68 54 d1 36 00       	push   $0x36d154
  362059:	e8 2a 70 00 00       	call   369088 <printk>
  36205e:	83 c4 20             	add    $0x20,%esp
  362061:	83 ec 0c             	sub    $0xc,%esp
  362064:	68 7a d1 36 00       	push   $0x36d17a
  362069:	e8 fe 6f 00 00       	call   36906c <panic>
  36206e:	83 c4 10             	add    $0x10,%esp
  362071:	8b 45 f4             	mov    -0xc(%ebp),%eax
  362074:	8d 14 85 00 00 00 00 	lea    0x0(,%eax,4),%edx
  36207b:	8b 45 08             	mov    0x8(%ebp),%eax
  36207e:	01 d0                	add    %edx,%eax
  362080:	0f b6 10             	movzbl (%eax),%edx
  362083:	83 e2 fe             	and    $0xfffffffe,%edx
  362086:	88 10                	mov    %dl,(%eax)
  362088:	83 45 f4 01          	addl   $0x1,-0xc(%ebp)
  36208c:	81 7d f4 ff 03 00 00 	cmpl   $0x3ff,-0xc(%ebp)
  362093:	0f 8e 36 ff ff ff    	jle    361fcf <_delete+0x12>
  362099:	c9                   	leave  
  36209a:	c3                   	ret    

0036209b <delete>:
  36209b:	55                   	push   %ebp
  36209c:	89 e5                	mov    %esp,%ebp
  36209e:	57                   	push   %edi
  36209f:	56                   	push   %esi
  3620a0:	53                   	push   %ebx
  3620a1:	83 ec 2c             	sub    $0x2c,%esp
  3620a4:	8b 45 08             	mov    0x8(%ebp),%eax
  3620a7:	89 45 e4             	mov    %eax,-0x1c(%ebp)
  3620aa:	83 7d e4 02          	cmpl   $0x2,-0x1c(%ebp)
  3620ae:	7f 18                	jg     3620c8 <delete+0x2d>
  3620b0:	83 7d e4 00          	cmpl   $0x0,-0x1c(%ebp)
  3620b4:	78 12                	js     3620c8 <delete+0x2d>
  3620b6:	a1 c4 37 37 00       	mov    0x3737c4,%eax
  3620bb:	8b 55 08             	mov    0x8(%ebp),%edx
  3620be:	83 c2 0c             	add    $0xc,%edx
  3620c1:	8b 44 90 04          	mov    0x4(%eax,%edx,4),%eax
  3620c5:	89 45 e4             	mov    %eax,-0x1c(%ebp)
  3620c8:	8b 45 e4             	mov    -0x1c(%ebp),%eax
  3620cb:	8b 04 85 00 3d 37 00 	mov    0x373d00(,%eax,4),%eax
  3620d2:	89 45 e0             	mov    %eax,-0x20(%ebp)
  3620d5:	8b 45 e0             	mov    -0x20(%ebp),%eax
  3620d8:	89 45 dc             	mov    %eax,-0x24(%ebp)
  3620db:	8b 45 dc             	mov    -0x24(%ebp),%eax
  3620de:	8b 80 04 01 00 00    	mov    0x104(%eax),%eax
  3620e4:	89 45 d8             	mov    %eax,-0x28(%ebp)
  3620e7:	83 ec 0c             	sub    $0xc,%esp
  3620ea:	ff 75 d8             	pushl  -0x28(%ebp)
  3620ed:	e8 cb fe ff ff       	call   361fbd <_delete>
  3620f2:	83 c4 10             	add    $0x10,%esp
  3620f5:	8b 45 d8             	mov    -0x28(%ebp),%eax
  3620f8:	83 ec 0c             	sub    $0xc,%esp
  3620fb:	50                   	push   %eax
  3620fc:	e8 44 92 00 00       	call   36b345 <free_page>
  362101:	83 c4 10             	add    $0x10,%esp
  362104:	89 45 d4             	mov    %eax,-0x2c(%ebp)
  362107:	83 7d d4 ff          	cmpl   $0xffffffff,-0x2c(%ebp)
  36210b:	75 27                	jne    362134 <delete+0x99>
  36210d:	83 ec 04             	sub    $0x4,%esp
  362110:	6a 7f                	push   $0x7f
  362112:	68 ce d0 36 00       	push   $0x36d0ce
  362117:	68 8c d1 36 00       	push   $0x36d18c
  36211c:	e8 67 6f 00 00       	call   369088 <printk>
  362121:	83 c4 10             	add    $0x10,%esp
  362124:	83 ec 0c             	sub    $0xc,%esp
  362127:	68 7a d1 36 00       	push   $0x36d17a
  36212c:	e8 3b 6f 00 00       	call   36906c <panic>
  362131:	83 c4 10             	add    $0x10,%esp
  362134:	8b 45 dc             	mov    -0x24(%ebp),%eax
  362137:	8b 80 f0 00 00 00    	mov    0xf0(%eax),%eax
  36213d:	83 ec 0c             	sub    $0xc,%esp
  362140:	50                   	push   %eax
  362141:	e8 58 f8 ff ff       	call   36199e <delvm>
  362146:	83 c4 10             	add    $0x10,%esp
  362149:	8b 45 dc             	mov    -0x24(%ebp),%eax
  36214c:	c7 80 f0 00 00 00 00 	movl   $0x0,0xf0(%eax)
  362153:	00 00 00 
  362156:	8b 45 dc             	mov    -0x24(%ebp),%eax
  362159:	8b 58 0c             	mov    0xc(%eax),%ebx
  36215c:	b8 02 00 00 00       	mov    $0x2,%eax
  362161:	8b 4d 08             	mov    0x8(%ebp),%ecx
  362164:	ba 00 00 00 00       	mov    $0x0,%edx
  362169:	be 00 00 00 00       	mov    $0x0,%esi
  36216e:	bf 00 00 00 00       	mov    $0x0,%edi
  362173:	cd 80                	int    $0x80
  362175:	89 45 d0             	mov    %eax,-0x30(%ebp)
  362178:	8d 65 f4             	lea    -0xc(%ebp),%esp
  36217b:	5b                   	pop    %ebx
  36217c:	5e                   	pop    %esi
  36217d:	5f                   	pop    %edi
  36217e:	5d                   	pop    %ebp
  36217f:	c3                   	ret    

00362180 <put_page>:
  362180:	55                   	push   %ebp
  362181:	89 e5                	mov    %esp,%ebp
  362183:	83 ec 18             	sub    $0x18,%esp
  362186:	c7 45 f4 00 00 00 00 	movl   $0x0,-0xc(%ebp)
  36218d:	8b 45 0c             	mov    0xc(%ebp),%eax
  362190:	c1 e8 16             	shr    $0x16,%eax
  362193:	8d 14 85 00 00 00 00 	lea    0x0(,%eax,4),%edx
  36219a:	8b 45 08             	mov    0x8(%ebp),%eax
  36219d:	01 d0                	add    %edx,%eax
  36219f:	0f b6 00             	movzbl (%eax),%eax
  3621a2:	83 e0 01             	and    $0x1,%eax
  3621a5:	84 c0                	test   %al,%al
  3621a7:	75 2c                	jne    3621d5 <put_page+0x55>
  3621a9:	e8 67 90 00 00       	call   36b215 <get_free_page>
  3621ae:	89 45 f4             	mov    %eax,-0xc(%ebp)
  3621b1:	83 7d f4 00          	cmpl   $0x0,-0xc(%ebp)
  3621b5:	75 07                	jne    3621be <put_page+0x3e>
  3621b7:	b8 f4 ff ff ff       	mov    $0xfffffff4,%eax
  3621bc:	eb 61                	jmp    36221f <put_page+0x9f>
  3621be:	8b 45 0c             	mov    0xc(%ebp),%eax
  3621c1:	c1 e8 16             	shr    $0x16,%eax
  3621c4:	6a 07                	push   $0x7
  3621c6:	50                   	push   %eax
  3621c7:	ff 75 f4             	pushl  -0xc(%ebp)
  3621ca:	ff 75 08             	pushl  0x8(%ebp)
  3621cd:	e8 73 fb ff ff       	call   361d45 <put_item>
  3621d2:	83 c4 10             	add    $0x10,%esp
  3621d5:	83 7d 10 00          	cmpl   $0x0,0x10(%ebp)
  3621d9:	75 07                	jne    3621e2 <put_page+0x62>
  3621db:	b8 ff ff ff ff       	mov    $0xffffffff,%eax
  3621e0:	eb 3d                	jmp    36221f <put_page+0x9f>
  3621e2:	8b 45 0c             	mov    0xc(%ebp),%eax
  3621e5:	c1 e8 16             	shr    $0x16,%eax
  3621e8:	8d 14 85 00 00 00 00 	lea    0x0(,%eax,4),%edx
  3621ef:	8b 45 08             	mov    0x8(%ebp),%eax
  3621f2:	01 d0                	add    %edx,%eax
  3621f4:	8b 00                	mov    (%eax),%eax
  3621f6:	25 00 f0 ff ff       	and    $0xfffff000,%eax
  3621fb:	89 45 f4             	mov    %eax,-0xc(%ebp)
  3621fe:	8b 45 0c             	mov    0xc(%ebp),%eax
  362201:	c1 e8 0c             	shr    $0xc,%eax
  362204:	25 ff 03 00 00       	and    $0x3ff,%eax
  362209:	6a 07                	push   $0x7
  36220b:	50                   	push   %eax
  36220c:	ff 75 10             	pushl  0x10(%ebp)
  36220f:	ff 75 f4             	pushl  -0xc(%ebp)
  362212:	e8 2e fb ff ff       	call   361d45 <put_item>
  362217:	83 c4 10             	add    $0x10,%esp
  36221a:	b8 00 00 00 00       	mov    $0x0,%eax
  36221f:	c9                   	leave  
  362220:	c3                   	ret    

00362221 <np_page>:
  362221:	55                   	push   %ebp
  362222:	89 e5                	mov    %esp,%ebp
  362224:	57                   	push   %edi
  362225:	56                   	push   %esi
  362226:	53                   	push   %ebx
  362227:	83 ec 2c             	sub    $0x2c,%esp
  36222a:	8b 45 08             	mov    0x8(%ebp),%eax
  36222d:	89 45 e4             	mov    %eax,-0x1c(%ebp)
  362230:	83 7d e4 02          	cmpl   $0x2,-0x1c(%ebp)
  362234:	7f 18                	jg     36224e <np_page+0x2d>
  362236:	83 7d e4 00          	cmpl   $0x0,-0x1c(%ebp)
  36223a:	78 12                	js     36224e <np_page+0x2d>
  36223c:	a1 c4 37 37 00       	mov    0x3737c4,%eax
  362241:	8b 55 08             	mov    0x8(%ebp),%edx
  362244:	83 c2 0c             	add    $0xc,%edx
  362247:	8b 44 90 04          	mov    0x4(%eax,%edx,4),%eax
  36224b:	89 45 e4             	mov    %eax,-0x1c(%ebp)
  36224e:	8b 45 e4             	mov    -0x1c(%ebp),%eax
  362251:	8b 04 85 00 3d 37 00 	mov    0x373d00(,%eax,4),%eax
  362258:	89 45 dc             	mov    %eax,-0x24(%ebp)
  36225b:	8b 45 dc             	mov    -0x24(%ebp),%eax
  36225e:	89 45 d8             	mov    %eax,-0x28(%ebp)
  362261:	8b 45 d8             	mov    -0x28(%ebp),%eax
  362264:	8b 80 f0 00 00 00    	mov    0xf0(%eax),%eax
  36226a:	83 ec 08             	sub    $0x8,%esp
  36226d:	ff 75 0c             	pushl  0xc(%ebp)
  362270:	50                   	push   %eax
  362271:	e8 1e f8 ff ff       	call   361a94 <dovm>
  362276:	83 c4 10             	add    $0x10,%esp
  362279:	89 45 d4             	mov    %eax,-0x2c(%ebp)
  36227c:	c7 45 e0 00 00 00 00 	movl   $0x0,-0x20(%ebp)
  362283:	83 7d d4 00          	cmpl   $0x0,-0x2c(%ebp)
  362287:	75 09                	jne    362292 <np_page+0x71>
  362289:	c7 45 e0 ff ff ff ff 	movl   $0xffffffff,-0x20(%ebp)
  362290:	eb 47                	jmp    3622d9 <np_page+0xb8>
  362292:	8b 45 d8             	mov    -0x28(%ebp),%eax
  362295:	8b 80 04 01 00 00    	mov    0x104(%eax),%eax
  36229b:	83 ec 04             	sub    $0x4,%esp
  36229e:	ff 75 d4             	pushl  -0x2c(%ebp)
  3622a1:	ff 75 0c             	pushl  0xc(%ebp)
  3622a4:	50                   	push   %eax
  3622a5:	e8 d6 fe ff ff       	call   362180 <put_page>
  3622aa:	83 c4 10             	add    $0x10,%esp
  3622ad:	89 45 e0             	mov    %eax,-0x20(%ebp)
  3622b0:	83 7d e0 00          	cmpl   $0x0,-0x20(%ebp)
  3622b4:	79 02                	jns    3622b8 <np_page+0x97>
  3622b6:	eb 21                	jmp    3622d9 <np_page+0xb8>
  3622b8:	b8 02 00 00 00       	mov    $0x2,%eax
  3622bd:	8b 5d 08             	mov    0x8(%ebp),%ebx
  3622c0:	8b 4d e0             	mov    -0x20(%ebp),%ecx
  3622c3:	ba 00 00 00 00       	mov    $0x0,%edx
  3622c8:	be 00 00 00 00       	mov    $0x0,%esi
  3622cd:	bf 00 00 00 00       	mov    $0x0,%edi
  3622d2:	cd 80                	int    $0x80
  3622d4:	89 45 d0             	mov    %eax,-0x30(%ebp)
  3622d7:	eb 1f                	jmp    3622f8 <np_page+0xd7>
  3622d9:	b8 02 00 00 00       	mov    $0x2,%eax
  3622de:	8b 5d 08             	mov    0x8(%ebp),%ebx
  3622e1:	b9 ff ff ff ff       	mov    $0xffffffff,%ecx
  3622e6:	8b 55 e0             	mov    -0x20(%ebp),%edx
  3622e9:	be 00 00 00 00       	mov    $0x0,%esi
  3622ee:	bf 00 00 00 00       	mov    $0x0,%edi
  3622f3:	cd 80                	int    $0x80
  3622f5:	89 45 cc             	mov    %eax,-0x34(%ebp)
  3622f8:	8d 65 f4             	lea    -0xc(%ebp),%esp
  3622fb:	5b                   	pop    %ebx
  3622fc:	5e                   	pop    %esi
  3622fd:	5f                   	pop    %edi
  3622fe:	5d                   	pop    %ebp
  3622ff:	c3                   	ret    

00362300 <_un_table>:
  362300:	55                   	push   %ebp
  362301:	89 e5                	mov    %esp,%ebp
  362303:	57                   	push   %edi
  362304:	56                   	push   %esi
  362305:	83 ec 10             	sub    $0x10,%esp
  362308:	8b 45 0c             	mov    0xc(%ebp),%eax
  36230b:	c1 e8 16             	shr    $0x16,%eax
  36230e:	8d 14 85 00 00 00 00 	lea    0x0(,%eax,4),%edx
  362315:	8b 45 08             	mov    0x8(%ebp),%eax
  362318:	01 d0                	add    %edx,%eax
  36231a:	8b 00                	mov    (%eax),%eax
  36231c:	25 00 f0 ff ff       	and    $0xfffff000,%eax
  362321:	89 45 f4             	mov    %eax,-0xc(%ebp)
  362324:	c7 45 ec 00 00 00 00 	movl   $0x0,-0x14(%ebp)
  36232b:	8b 45 0c             	mov    0xc(%ebp),%eax
  36232e:	c1 e8 16             	shr    $0x16,%eax
  362331:	8d 14 85 00 00 00 00 	lea    0x0(,%eax,4),%edx
  362338:	8b 45 08             	mov    0x8(%ebp),%eax
  36233b:	01 d0                	add    %edx,%eax
  36233d:	0f b6 00             	movzbl (%eax),%eax
  362340:	83 e0 01             	and    $0x1,%eax
  362343:	84 c0                	test   %al,%al
  362345:	75 24                	jne    36236b <_un_table+0x6b>
  362347:	68 ac 00 00 00       	push   $0xac
  36234c:	68 ce d0 36 00       	push   $0x36d0ce
  362351:	ff 75 0c             	pushl  0xc(%ebp)
  362354:	68 bc d1 36 00       	push   $0x36d1bc
  362359:	e8 2a 6d 00 00       	call   369088 <printk>
  36235e:	83 c4 10             	add    $0x10,%esp
  362361:	b8 00 00 00 00       	mov    $0x0,%eax
  362366:	e9 fc 00 00 00       	jmp    362467 <_un_table+0x167>
  36236b:	c7 45 f0 00 00 00 00 	movl   $0x0,-0x10(%ebp)
  362372:	eb 34                	jmp    3623a8 <_un_table+0xa8>
  362374:	8b 45 f0             	mov    -0x10(%ebp),%eax
  362377:	8d 14 85 00 00 00 00 	lea    0x0(,%eax,4),%edx
  36237e:	8b 45 f4             	mov    -0xc(%ebp),%eax
  362381:	01 d0                	add    %edx,%eax
  362383:	0f b6 00             	movzbl (%eax),%eax
  362386:	83 e0 01             	and    $0x1,%eax
  362389:	84 c0                	test   %al,%al
  36238b:	74 17                	je     3623a4 <_un_table+0xa4>
  36238d:	8b 45 f0             	mov    -0x10(%ebp),%eax
  362390:	8d 14 85 00 00 00 00 	lea    0x0(,%eax,4),%edx
  362397:	8b 45 f4             	mov    -0xc(%ebp),%eax
  36239a:	01 d0                	add    %edx,%eax
  36239c:	0f b6 10             	movzbl (%eax),%edx
  36239f:	83 e2 fd             	and    $0xfffffffd,%edx
  3623a2:	88 10                	mov    %dl,(%eax)
  3623a4:	83 45 f0 01          	addl   $0x1,-0x10(%ebp)
  3623a8:	81 7d f0 ff 03 00 00 	cmpl   $0x3ff,-0x10(%ebp)
  3623af:	7e c3                	jle    362374 <_un_table+0x74>
  3623b1:	8b 45 0c             	mov    0xc(%ebp),%eax
  3623b4:	c1 e8 16             	shr    $0x16,%eax
  3623b7:	8d 14 85 00 00 00 00 	lea    0x0(,%eax,4),%edx
  3623be:	8b 45 08             	mov    0x8(%ebp),%eax
  3623c1:	01 d0                	add    %edx,%eax
  3623c3:	8b 00                	mov    (%eax),%eax
  3623c5:	83 ec 0c             	sub    $0xc,%esp
  3623c8:	50                   	push   %eax
  3623c9:	e8 5f 8f 00 00       	call   36b32d <page_share_nr>
  3623ce:	83 c4 10             	add    $0x10,%esp
  3623d1:	83 f8 01             	cmp    $0x1,%eax
  3623d4:	0f 8e 8a 00 00 00    	jle    362464 <_un_table+0x164>
  3623da:	8b 45 0c             	mov    0xc(%ebp),%eax
  3623dd:	c1 e8 16             	shr    $0x16,%eax
  3623e0:	8d 14 85 00 00 00 00 	lea    0x0(,%eax,4),%edx
  3623e7:	8b 45 08             	mov    0x8(%ebp),%eax
  3623ea:	01 d0                	add    %edx,%eax
  3623ec:	8b 00                	mov    (%eax),%eax
  3623ee:	83 ec 0c             	sub    $0xc,%esp
  3623f1:	50                   	push   %eax
  3623f2:	e8 4e 8f 00 00       	call   36b345 <free_page>
  3623f7:	83 c4 10             	add    $0x10,%esp
  3623fa:	89 45 e8             	mov    %eax,-0x18(%ebp)
  3623fd:	83 7d e8 ff          	cmpl   $0xffffffff,-0x18(%ebp)
  362401:	75 34                	jne    362437 <_un_table+0x137>
  362403:	83 ec 04             	sub    $0x4,%esp
  362406:	68 b9 00 00 00       	push   $0xb9
  36240b:	68 ce d0 36 00       	push   $0x36d0ce
  362410:	68 f4 d1 36 00       	push   $0x36d1f4
  362415:	e8 6e 6c 00 00       	call   369088 <printk>
  36241a:	83 c4 10             	add    $0x10,%esp
  36241d:	68 b9 00 00 00       	push   $0xb9
  362422:	68 ce d0 36 00       	push   $0x36d0ce
  362427:	ff 75 0c             	pushl  0xc(%ebp)
  36242a:	68 38 d2 36 00       	push   $0x36d238
  36242f:	e8 54 6c 00 00       	call   369088 <printk>
  362434:	83 c4 10             	add    $0x10,%esp
  362437:	e8 d9 8d 00 00       	call   36b215 <get_free_page>
  36243c:	89 45 ec             	mov    %eax,-0x14(%ebp)
  36243f:	83 7d ec 00          	cmpl   $0x0,-0x14(%ebp)
  362443:	75 07                	jne    36244c <_un_table+0x14c>
  362445:	b8 00 00 00 00       	mov    $0x0,%eax
  36244a:	eb 1b                	jmp    362467 <_un_table+0x167>
  36244c:	8b 45 f4             	mov    -0xc(%ebp),%eax
  36244f:	8b 55 ec             	mov    -0x14(%ebp),%edx
  362452:	b9 00 04 00 00       	mov    $0x400,%ecx
  362457:	89 c6                	mov    %eax,%esi
  362459:	89 d7                	mov    %edx,%edi
  36245b:	fc                   	cld    
  36245c:	f3 a5                	rep movsl %ds:(%esi),%es:(%edi)
  36245e:	8b 45 ec             	mov    -0x14(%ebp),%eax
  362461:	89 45 f4             	mov    %eax,-0xc(%ebp)
  362464:	8b 45 f4             	mov    -0xc(%ebp),%eax
  362467:	8d 65 f8             	lea    -0x8(%ebp),%esp
  36246a:	5e                   	pop    %esi
  36246b:	5f                   	pop    %edi
  36246c:	5d                   	pop    %ebp
  36246d:	c3                   	ret    

0036246e <_un_page>:
  36246e:	55                   	push   %ebp
  36246f:	89 e5                	mov    %esp,%ebp
  362471:	57                   	push   %edi
  362472:	56                   	push   %esi
  362473:	83 ec 10             	sub    $0x10,%esp
  362476:	8b 45 0c             	mov    0xc(%ebp),%eax
  362479:	c1 e8 0c             	shr    $0xc,%eax
  36247c:	25 ff 03 00 00       	and    $0x3ff,%eax
  362481:	8d 14 85 00 00 00 00 	lea    0x0(,%eax,4),%edx
  362488:	8b 45 08             	mov    0x8(%ebp),%eax
  36248b:	01 d0                	add    %edx,%eax
  36248d:	8b 00                	mov    (%eax),%eax
  36248f:	25 00 f0 ff ff       	and    $0xfffff000,%eax
  362494:	89 45 f4             	mov    %eax,-0xc(%ebp)
  362497:	c7 45 f0 00 00 00 00 	movl   $0x0,-0x10(%ebp)
  36249e:	8b 45 0c             	mov    0xc(%ebp),%eax
  3624a1:	c1 e8 0c             	shr    $0xc,%eax
  3624a4:	25 ff 03 00 00       	and    $0x3ff,%eax
  3624a9:	8d 14 85 00 00 00 00 	lea    0x0(,%eax,4),%edx
  3624b0:	8b 45 08             	mov    0x8(%ebp),%eax
  3624b3:	01 d0                	add    %edx,%eax
  3624b5:	0f b6 00             	movzbl (%eax),%eax
  3624b8:	83 e0 01             	and    $0x1,%eax
  3624bb:	84 c0                	test   %al,%al
  3624bd:	75 24                	jne    3624e3 <_un_page+0x75>
  3624bf:	68 c9 00 00 00       	push   $0xc9
  3624c4:	68 ce d0 36 00       	push   $0x36d0ce
  3624c9:	ff 75 0c             	pushl  0xc(%ebp)
  3624cc:	68 7c d2 36 00       	push   $0x36d27c
  3624d1:	e8 b2 6b 00 00       	call   369088 <printk>
  3624d6:	83 c4 10             	add    $0x10,%esp
  3624d9:	b8 00 00 00 00       	mov    $0x0,%eax
  3624de:	e9 c0 00 00 00       	jmp    3625a3 <_un_page+0x135>
  3624e3:	8b 45 0c             	mov    0xc(%ebp),%eax
  3624e6:	c1 e8 0c             	shr    $0xc,%eax
  3624e9:	25 ff 03 00 00       	and    $0x3ff,%eax
  3624ee:	8d 14 85 00 00 00 00 	lea    0x0(,%eax,4),%edx
  3624f5:	8b 45 08             	mov    0x8(%ebp),%eax
  3624f8:	01 d0                	add    %edx,%eax
  3624fa:	8b 00                	mov    (%eax),%eax
  3624fc:	83 ec 0c             	sub    $0xc,%esp
  3624ff:	50                   	push   %eax
  362500:	e8 28 8e 00 00       	call   36b32d <page_share_nr>
  362505:	83 c4 10             	add    $0x10,%esp
  362508:	83 f8 01             	cmp    $0x1,%eax
  36250b:	0f 8e 8f 00 00 00    	jle    3625a0 <_un_page+0x132>
  362511:	8b 45 0c             	mov    0xc(%ebp),%eax
  362514:	c1 e8 0c             	shr    $0xc,%eax
  362517:	25 ff 03 00 00       	and    $0x3ff,%eax
  36251c:	8d 14 85 00 00 00 00 	lea    0x0(,%eax,4),%edx
  362523:	8b 45 08             	mov    0x8(%ebp),%eax
  362526:	01 d0                	add    %edx,%eax
  362528:	8b 00                	mov    (%eax),%eax
  36252a:	83 ec 0c             	sub    $0xc,%esp
  36252d:	50                   	push   %eax
  36252e:	e8 12 8e 00 00       	call   36b345 <free_page>
  362533:	83 c4 10             	add    $0x10,%esp
  362536:	89 45 ec             	mov    %eax,-0x14(%ebp)
  362539:	83 7d ec ff          	cmpl   $0xffffffff,-0x14(%ebp)
  36253d:	75 34                	jne    362573 <_un_page+0x105>
  36253f:	83 ec 04             	sub    $0x4,%esp
  362542:	68 d0 00 00 00       	push   $0xd0
  362547:	68 ce d0 36 00       	push   $0x36d0ce
  36254c:	68 a8 d2 36 00       	push   $0x36d2a8
  362551:	e8 32 6b 00 00       	call   369088 <printk>
  362556:	83 c4 10             	add    $0x10,%esp
  362559:	68 d0 00 00 00       	push   $0xd0
  36255e:	68 ce d0 36 00       	push   $0x36d0ce
  362563:	ff 75 0c             	pushl  0xc(%ebp)
  362566:	68 38 d2 36 00       	push   $0x36d238
  36256b:	e8 18 6b 00 00       	call   369088 <printk>
  362570:	83 c4 10             	add    $0x10,%esp
  362573:	e8 9d 8c 00 00       	call   36b215 <get_free_page>
  362578:	89 45 f0             	mov    %eax,-0x10(%ebp)
  36257b:	83 7d f0 00          	cmpl   $0x0,-0x10(%ebp)
  36257f:	75 07                	jne    362588 <_un_page+0x11a>
  362581:	b8 00 00 00 00       	mov    $0x0,%eax
  362586:	eb 1b                	jmp    3625a3 <_un_page+0x135>
  362588:	8b 45 f4             	mov    -0xc(%ebp),%eax
  36258b:	8b 55 f0             	mov    -0x10(%ebp),%edx
  36258e:	b9 00 04 00 00       	mov    $0x400,%ecx
  362593:	89 c6                	mov    %eax,%esi
  362595:	89 d7                	mov    %edx,%edi
  362597:	fc                   	cld    
  362598:	f3 a5                	rep movsl %ds:(%esi),%es:(%edi)
  36259a:	8b 45 f0             	mov    -0x10(%ebp),%eax
  36259d:	89 45 f4             	mov    %eax,-0xc(%ebp)
  3625a0:	8b 45 f4             	mov    -0xc(%ebp),%eax
  3625a3:	8d 65 f8             	lea    -0x8(%ebp),%esp
  3625a6:	5e                   	pop    %esi
  3625a7:	5f                   	pop    %edi
  3625a8:	5d                   	pop    %ebp
  3625a9:	c3                   	ret    

003625aa <nw_page>:
  3625aa:	55                   	push   %ebp
  3625ab:	89 e5                	mov    %esp,%ebp
  3625ad:	57                   	push   %edi
  3625ae:	56                   	push   %esi
  3625af:	53                   	push   %ebx
  3625b0:	83 ec 2c             	sub    $0x2c,%esp
  3625b3:	8b 45 08             	mov    0x8(%ebp),%eax
  3625b6:	89 45 e4             	mov    %eax,-0x1c(%ebp)
  3625b9:	83 7d e4 02          	cmpl   $0x2,-0x1c(%ebp)
  3625bd:	7f 18                	jg     3625d7 <nw_page+0x2d>
  3625bf:	83 7d e4 00          	cmpl   $0x0,-0x1c(%ebp)
  3625c3:	78 12                	js     3625d7 <nw_page+0x2d>
  3625c5:	a1 c4 37 37 00       	mov    0x3737c4,%eax
  3625ca:	8b 55 08             	mov    0x8(%ebp),%edx
  3625cd:	83 c2 0c             	add    $0xc,%edx
  3625d0:	8b 44 90 04          	mov    0x4(%eax,%edx,4),%eax
  3625d4:	89 45 e4             	mov    %eax,-0x1c(%ebp)
  3625d7:	8b 45 e4             	mov    -0x1c(%ebp),%eax
  3625da:	8b 04 85 00 3d 37 00 	mov    0x373d00(,%eax,4),%eax
  3625e1:	89 45 dc             	mov    %eax,-0x24(%ebp)
  3625e4:	8b 45 dc             	mov    -0x24(%ebp),%eax
  3625e7:	89 45 d8             	mov    %eax,-0x28(%ebp)
  3625ea:	8b 45 d8             	mov    -0x28(%ebp),%eax
  3625ed:	8b 80 04 01 00 00    	mov    0x104(%eax),%eax
  3625f3:	83 ec 08             	sub    $0x8,%esp
  3625f6:	ff 75 0c             	pushl  0xc(%ebp)
  3625f9:	50                   	push   %eax
  3625fa:	e8 01 fd ff ff       	call   362300 <_un_table>
  3625ff:	83 c4 10             	add    $0x10,%esp
  362602:	89 45 d4             	mov    %eax,-0x2c(%ebp)
  362605:	c7 45 e0 00 00 00 00 	movl   $0x0,-0x20(%ebp)
  36260c:	83 7d d4 00          	cmpl   $0x0,-0x2c(%ebp)
  362610:	75 0c                	jne    36261e <nw_page+0x74>
  362612:	c7 45 e0 ff ff ff ff 	movl   $0xffffffff,-0x20(%ebp)
  362619:	e9 82 00 00 00       	jmp    3626a0 <nw_page+0xf6>
  36261e:	8b 45 0c             	mov    0xc(%ebp),%eax
  362621:	c1 e8 16             	shr    $0x16,%eax
  362624:	89 c2                	mov    %eax,%edx
  362626:	8b 45 d8             	mov    -0x28(%ebp),%eax
  362629:	8b 80 04 01 00 00    	mov    0x104(%eax),%eax
  36262f:	6a 07                	push   $0x7
  362631:	52                   	push   %edx
  362632:	ff 75 d4             	pushl  -0x2c(%ebp)
  362635:	50                   	push   %eax
  362636:	e8 0a f7 ff ff       	call   361d45 <put_item>
  36263b:	83 c4 10             	add    $0x10,%esp
  36263e:	83 ec 08             	sub    $0x8,%esp
  362641:	ff 75 0c             	pushl  0xc(%ebp)
  362644:	ff 75 d4             	pushl  -0x2c(%ebp)
  362647:	e8 22 fe ff ff       	call   36246e <_un_page>
  36264c:	83 c4 10             	add    $0x10,%esp
  36264f:	89 45 d0             	mov    %eax,-0x30(%ebp)
  362652:	83 7d d0 00          	cmpl   $0x0,-0x30(%ebp)
  362656:	75 09                	jne    362661 <nw_page+0xb7>
  362658:	c7 45 e0 ff ff ff ff 	movl   $0xffffffff,-0x20(%ebp)
  36265f:	eb 3f                	jmp    3626a0 <nw_page+0xf6>
  362661:	8b 45 0c             	mov    0xc(%ebp),%eax
  362664:	c1 e8 0c             	shr    $0xc,%eax
  362667:	25 ff 03 00 00       	and    $0x3ff,%eax
  36266c:	6a 07                	push   $0x7
  36266e:	50                   	push   %eax
  36266f:	ff 75 d0             	pushl  -0x30(%ebp)
  362672:	ff 75 d4             	pushl  -0x2c(%ebp)
  362675:	e8 cb f6 ff ff       	call   361d45 <put_item>
  36267a:	83 c4 10             	add    $0x10,%esp
  36267d:	b8 02 00 00 00       	mov    $0x2,%eax
  362682:	8b 5d 08             	mov    0x8(%ebp),%ebx
  362685:	b9 00 00 00 00       	mov    $0x0,%ecx
  36268a:	ba 00 00 00 00       	mov    $0x0,%edx
  36268f:	be 00 00 00 00       	mov    $0x0,%esi
  362694:	bf 00 00 00 00       	mov    $0x0,%edi
  362699:	cd 80                	int    $0x80
  36269b:	89 45 cc             	mov    %eax,-0x34(%ebp)
  36269e:	eb 1f                	jmp    3626bf <nw_page+0x115>
  3626a0:	b8 02 00 00 00       	mov    $0x2,%eax
  3626a5:	8b 5d 08             	mov    0x8(%ebp),%ebx
  3626a8:	b9 ff ff ff ff       	mov    $0xffffffff,%ecx
  3626ad:	8b 55 e0             	mov    -0x20(%ebp),%edx
  3626b0:	be 00 00 00 00       	mov    $0x0,%esi
  3626b5:	bf 00 00 00 00       	mov    $0x0,%edi
  3626ba:	cd 80                	int    $0x80
  3626bc:	89 45 c8             	mov    %eax,-0x38(%ebp)
  3626bf:	8d 65 f4             	lea    -0xc(%ebp),%esp
  3626c2:	5b                   	pop    %ebx
  3626c3:	5e                   	pop    %esi
  3626c4:	5f                   	pop    %edi
  3626c5:	5d                   	pop    %ebp
  3626c6:	c3                   	ret    

003626c7 <__va>:
  3626c7:	55                   	push   %ebp
  3626c8:	89 e5                	mov    %esp,%ebp
  3626ca:	83 ec 10             	sub    $0x10,%esp
  3626cd:	8b 45 0c             	mov    0xc(%ebp),%eax
  3626d0:	c1 e8 16             	shr    $0x16,%eax
  3626d3:	8d 14 85 00 00 00 00 	lea    0x0(,%eax,4),%edx
  3626da:	8b 45 08             	mov    0x8(%ebp),%eax
  3626dd:	01 d0                	add    %edx,%eax
  3626df:	8b 00                	mov    (%eax),%eax
  3626e1:	25 00 f0 ff ff       	and    $0xfffff000,%eax
  3626e6:	89 45 fc             	mov    %eax,-0x4(%ebp)
  3626e9:	8b 45 0c             	mov    0xc(%ebp),%eax
  3626ec:	c1 e8 0c             	shr    $0xc,%eax
  3626ef:	25 ff 03 00 00       	and    $0x3ff,%eax
  3626f4:	8d 14 85 00 00 00 00 	lea    0x0(,%eax,4),%edx
  3626fb:	8b 45 fc             	mov    -0x4(%ebp),%eax
  3626fe:	01 d0                	add    %edx,%eax
  362700:	8b 00                	mov    (%eax),%eax
  362702:	25 00 f0 ff ff       	and    $0xfffff000,%eax
  362707:	89 c2                	mov    %eax,%edx
  362709:	8b 45 0c             	mov    0xc(%ebp),%eax
  36270c:	25 ff 0f 00 00       	and    $0xfff,%eax
  362711:	01 d0                	add    %edx,%eax
  362713:	c9                   	leave  
  362714:	c3                   	ret    

00362715 <mm_execvp>:
  362715:	55                   	push   %ebp
  362716:	89 e5                	mov    %esp,%ebp
  362718:	57                   	push   %edi
  362719:	56                   	push   %esi
  36271a:	53                   	push   %ebx
  36271b:	83 ec 2c             	sub    $0x2c,%esp
  36271e:	8b 45 08             	mov    0x8(%ebp),%eax
  362721:	89 45 e4             	mov    %eax,-0x1c(%ebp)
  362724:	83 7d e4 02          	cmpl   $0x2,-0x1c(%ebp)
  362728:	7f 18                	jg     362742 <mm_execvp+0x2d>
  36272a:	83 7d e4 00          	cmpl   $0x0,-0x1c(%ebp)
  36272e:	78 12                	js     362742 <mm_execvp+0x2d>
  362730:	a1 c4 37 37 00       	mov    0x3737c4,%eax
  362735:	8b 55 08             	mov    0x8(%ebp),%edx
  362738:	83 c2 0c             	add    $0xc,%edx
  36273b:	8b 44 90 04          	mov    0x4(%eax,%edx,4),%eax
  36273f:	89 45 e4             	mov    %eax,-0x1c(%ebp)
  362742:	8b 45 e4             	mov    -0x1c(%ebp),%eax
  362745:	8b 04 85 00 3d 37 00 	mov    0x373d00(,%eax,4),%eax
  36274c:	89 45 e0             	mov    %eax,-0x20(%ebp)
  36274f:	8b 45 e0             	mov    -0x20(%ebp),%eax
  362752:	89 45 dc             	mov    %eax,-0x24(%ebp)
  362755:	8b 45 dc             	mov    -0x24(%ebp),%eax
  362758:	c7 80 00 01 00 00 bc 	movl   $0x2fbc,0x100(%eax)
  36275f:	2f 00 00 
  362762:	8b 45 dc             	mov    -0x24(%ebp),%eax
  362765:	8b 80 00 01 00 00    	mov    0x100(%eax),%eax
  36276b:	8b 55 dc             	mov    -0x24(%ebp),%edx
  36276e:	8b 92 04 01 00 00    	mov    0x104(%edx),%edx
  362774:	50                   	push   %eax
  362775:	52                   	push   %edx
  362776:	e8 4c ff ff ff       	call   3626c7 <__va>
  36277b:	83 c4 08             	add    $0x8,%esp
  36277e:	89 45 d8             	mov    %eax,-0x28(%ebp)
  362781:	8b 45 dc             	mov    -0x24(%ebp),%eax
  362784:	8b 80 f0 00 00 00    	mov    0xf0(%eax),%eax
  36278a:	83 ec 0c             	sub    $0xc,%esp
  36278d:	50                   	push   %eax
  36278e:	e8 0b f2 ff ff       	call   36199e <delvm>
  362793:	83 c4 10             	add    $0x10,%esp
  362796:	8b 45 dc             	mov    -0x24(%ebp),%eax
  362799:	83 c0 14             	add    $0x14,%eax
  36279c:	83 ec 0c             	sub    $0xc,%esp
  36279f:	50                   	push   %eax
  3627a0:	ff 75 d8             	pushl  -0x28(%ebp)
  3627a3:	ff 75 14             	pushl  0x14(%ebp)
  3627a6:	ff 75 10             	pushl  0x10(%ebp)
  3627a9:	ff 75 0c             	pushl  0xc(%ebp)
  3627ac:	e8 cd ee ff ff       	call   36167e <mkvm>
  3627b1:	83 c4 20             	add    $0x20,%esp
  3627b4:	89 45 d4             	mov    %eax,-0x2c(%ebp)
  3627b7:	83 7d d4 00          	cmpl   $0x0,-0x2c(%ebp)
  3627bb:	75 1a                	jne    3627d7 <mm_execvp+0xc2>
  3627bd:	83 ec 04             	sub    $0x4,%esp
  3627c0:	68 fb 00 00 00       	push   $0xfb
  3627c5:	68 ce d0 36 00       	push   $0x36d0ce
  3627ca:	68 f0 d2 36 00       	push   $0x36d2f0
  3627cf:	e8 b4 68 00 00       	call   369088 <printk>
  3627d4:	83 c4 10             	add    $0x10,%esp
  3627d7:	8b 55 d4             	mov    -0x2c(%ebp),%edx
  3627da:	8b 45 dc             	mov    -0x24(%ebp),%eax
  3627dd:	89 90 f0 00 00 00    	mov    %edx,0xf0(%eax)
  3627e3:	8b 45 dc             	mov    -0x24(%ebp),%eax
  3627e6:	8b 80 04 01 00 00    	mov    0x104(%eax),%eax
  3627ec:	83 ec 0c             	sub    $0xc,%esp
  3627ef:	50                   	push   %eax
  3627f0:	e8 c8 f7 ff ff       	call   361fbd <_delete>
  3627f5:	83 c4 10             	add    $0x10,%esp
  3627f8:	8b 45 dc             	mov    -0x24(%ebp),%eax
  3627fb:	83 c0 50             	add    $0x50,%eax
  3627fe:	83 ec 04             	sub    $0x4,%esp
  362801:	68 80 00 00 00       	push   $0x80
  362806:	6a 00                	push   $0x0
  362808:	50                   	push   %eax
  362809:	e8 fd f3 ff ff       	call   361c0b <memset>
  36280e:	83 c4 10             	add    $0x10,%esp
  362811:	b8 02 00 00 00       	mov    $0x2,%eax
  362816:	8b 5d 08             	mov    0x8(%ebp),%ebx
  362819:	b9 00 00 00 00       	mov    $0x0,%ecx
  36281e:	ba 00 00 00 00       	mov    $0x0,%edx
  362823:	be 00 00 00 00       	mov    $0x0,%esi
  362828:	bf 00 00 00 00       	mov    $0x0,%edi
  36282d:	cd 80                	int    $0x80
  36282f:	89 45 d0             	mov    %eax,-0x30(%ebp)
  362832:	8d 65 f4             	lea    -0xc(%ebp),%esp
  362835:	5b                   	pop    %ebx
  362836:	5e                   	pop    %esi
  362837:	5f                   	pop    %edi
  362838:	5d                   	pop    %ebp
  362839:	c3                   	ret    

0036283a <_wait>:
  36283a:	55                   	push   %ebp
  36283b:	89 e5                	mov    %esp,%ebp
  36283d:	5d                   	pop    %ebp
  36283e:	c3                   	ret    

0036283f <__clone_space__>:
  36283f:	55                   	push   %ebp
  362840:	89 e5                	mov    %esp,%ebp
  362842:	57                   	push   %edi
  362843:	56                   	push   %esi
  362844:	83 ec 10             	sub    $0x10,%esp
  362847:	e8 c9 89 00 00       	call   36b215 <get_free_page>
  36284c:	89 45 f0             	mov    %eax,-0x10(%ebp)
  36284f:	e8 c1 89 00 00       	call   36b215 <get_free_page>
  362854:	89 45 ec             	mov    %eax,-0x14(%ebp)
  362857:	8b 45 08             	mov    0x8(%ebp),%eax
  36285a:	8b 00                	mov    (%eax),%eax
  36285c:	25 00 f0 ff ff       	and    $0xfffff000,%eax
  362861:	89 45 e8             	mov    %eax,-0x18(%ebp)
  362864:	83 7d f0 00          	cmpl   $0x0,-0x10(%ebp)
  362868:	74 06                	je     362870 <__clone_space__+0x31>
  36286a:	83 7d ec 00          	cmpl   $0x0,-0x14(%ebp)
  36286e:	75 10                	jne    362880 <__clone_space__+0x41>
  362870:	83 ec 0c             	sub    $0xc,%esp
  362873:	68 2c d3 36 00       	push   $0x36d32c
  362878:	e8 ef 67 00 00       	call   36906c <panic>
  36287d:	83 c4 10             	add    $0x10,%esp
  362880:	8b 45 08             	mov    0x8(%ebp),%eax
  362883:	8b 55 f0             	mov    -0x10(%ebp),%edx
  362886:	b9 00 04 00 00       	mov    $0x400,%ecx
  36288b:	89 c6                	mov    %eax,%esi
  36288d:	89 d7                	mov    %edx,%edi
  36288f:	fc                   	cld    
  362890:	f3 a5                	rep movsl %ds:(%esi),%es:(%edi)
  362892:	c7 45 f4 03 00 00 00 	movl   $0x3,-0xc(%ebp)
  362899:	eb 1b                	jmp    3628b6 <__clone_space__+0x77>
  36289b:	8b 45 f4             	mov    -0xc(%ebp),%eax
  36289e:	8d 14 85 00 00 00 00 	lea    0x0(,%eax,4),%edx
  3628a5:	8b 45 f0             	mov    -0x10(%ebp),%eax
  3628a8:	01 d0                	add    %edx,%eax
  3628aa:	0f b6 10             	movzbl (%eax),%edx
  3628ad:	83 e2 fe             	and    $0xfffffffe,%edx
  3628b0:	88 10                	mov    %dl,(%eax)
  3628b2:	83 45 f4 01          	addl   $0x1,-0xc(%ebp)
  3628b6:	81 7d f4 ff 03 00 00 	cmpl   $0x3ff,-0xc(%ebp)
  3628bd:	7e dc                	jle    36289b <__clone_space__+0x5c>
  3628bf:	8b 45 e8             	mov    -0x18(%ebp),%eax
  3628c2:	8b 55 ec             	mov    -0x14(%ebp),%edx
  3628c5:	b9 00 04 00 00       	mov    $0x400,%ecx
  3628ca:	89 c6                	mov    %eax,%esi
  3628cc:	89 d7                	mov    %edx,%edi
  3628ce:	fc                   	cld    
  3628cf:	f3 a5                	rep movsl %ds:(%esi),%es:(%edi)
  3628d1:	6a 07                	push   $0x7
  3628d3:	6a 02                	push   $0x2
  3628d5:	ff 75 0c             	pushl  0xc(%ebp)
  3628d8:	ff 75 ec             	pushl  -0x14(%ebp)
  3628db:	e8 65 f4 ff ff       	call   361d45 <put_item>
  3628e0:	83 c4 10             	add    $0x10,%esp
  3628e3:	6a 07                	push   $0x7
  3628e5:	6a 00                	push   $0x0
  3628e7:	ff 75 ec             	pushl  -0x14(%ebp)
  3628ea:	ff 75 f0             	pushl  -0x10(%ebp)
  3628ed:	e8 53 f4 ff ff       	call   361d45 <put_item>
  3628f2:	83 c4 10             	add    $0x10,%esp
  3628f5:	8b 45 f0             	mov    -0x10(%ebp),%eax
  3628f8:	8d 65 f8             	lea    -0x8(%ebp),%esp
  3628fb:	5e                   	pop    %esi
  3628fc:	5f                   	pop    %edi
  3628fd:	5d                   	pop    %ebp
  3628fe:	c3                   	ret    

003628ff <make_task>:
  3628ff:	55                   	push   %ebp
  362900:	89 e5                	mov    %esp,%ebp
  362902:	57                   	push   %edi
  362903:	83 ec 54             	sub    $0x54,%esp
  362906:	a1 c4 37 37 00       	mov    0x3737c4,%eax
  36290b:	83 ec 0c             	sub    $0xc,%esp
  36290e:	50                   	push   %eax
  36290f:	e8 49 8d 00 00       	call   36b65d <cloneObject>
  362914:	83 c4 10             	add    $0x10,%esp
  362917:	89 45 f4             	mov    %eax,-0xc(%ebp)
  36291a:	8b 45 f4             	mov    -0xc(%ebp),%eax
  36291d:	89 45 f0             	mov    %eax,-0x10(%ebp)
  362920:	a1 c4 37 37 00       	mov    0x3737c4,%eax
  362925:	89 45 ec             	mov    %eax,-0x14(%ebp)
  362928:	8b 45 ec             	mov    -0x14(%ebp),%eax
  36292b:	8b 80 04 01 00 00    	mov    0x104(%eax),%eax
  362931:	83 ec 08             	sub    $0x8,%esp
  362934:	ff 75 f0             	pushl  -0x10(%ebp)
  362937:	50                   	push   %eax
  362938:	e8 02 ff ff ff       	call   36283f <__clone_space__>
  36293d:	83 c4 10             	add    $0x10,%esp
  362940:	89 c2                	mov    %eax,%edx
  362942:	8b 45 f0             	mov    -0x10(%ebp),%eax
  362945:	89 90 04 01 00 00    	mov    %edx,0x104(%eax)
  36294b:	8b 45 f0             	mov    -0x10(%ebp),%eax
  36294e:	c7 80 00 01 00 00 bc 	movl   $0x2fbc,0x100(%eax)
  362955:	2f 00 00 
  362958:	8b 45 f0             	mov    -0x10(%ebp),%eax
  36295b:	c7 80 fc 00 00 00 00 	movl   $0x0,0xfc(%eax)
  362962:	00 00 00 
  362965:	8b 45 f0             	mov    -0x10(%ebp),%eax
  362968:	c7 80 f4 00 00 00 14 	movl   $0x14,0xf4(%eax)
  36296f:	00 00 00 
  362972:	8b 45 f0             	mov    -0x10(%ebp),%eax
  362975:	c7 80 f8 00 00 00 14 	movl   $0x14,0xf8(%eax)
  36297c:	00 00 00 
  36297f:	8b 45 f0             	mov    -0x10(%ebp),%eax
  362982:	83 c0 14             	add    $0x14,%eax
  362985:	83 ec 08             	sub    $0x8,%esp
  362988:	ff 75 08             	pushl  0x8(%ebp)
  36298b:	50                   	push   %eax
  36298c:	e8 3d f2 ff ff       	call   361bce <strcpy>
  362991:	83 c4 10             	add    $0x10,%esp
  362994:	8d 55 a8             	lea    -0x58(%ebp),%edx
  362997:	b8 00 00 00 00       	mov    $0x0,%eax
  36299c:	b9 11 00 00 00       	mov    $0x11,%ecx
  3629a1:	89 d7                	mov    %edx,%edi
  3629a3:	f3 ab                	rep stos %eax,%es:(%edi)
  3629a5:	c7 45 a8 10 00 00 00 	movl   $0x10,-0x58(%ebp)
  3629ac:	c7 45 ac 10 00 00 00 	movl   $0x10,-0x54(%ebp)
  3629b3:	c7 45 b0 10 00 00 00 	movl   $0x10,-0x50(%ebp)
  3629ba:	c7 45 b4 10 00 00 00 	movl   $0x10,-0x4c(%ebp)
  3629c1:	8b 45 0c             	mov    0xc(%ebp),%eax
  3629c4:	89 45 d8             	mov    %eax,-0x28(%ebp)
  3629c7:	c7 45 dc 08 00 00 00 	movl   $0x8,-0x24(%ebp)
  3629ce:	c7 45 e0 00 02 00 00 	movl   $0x200,-0x20(%ebp)
  3629d5:	8b 45 f0             	mov    -0x10(%ebp),%eax
  3629d8:	8d 90 bc 0f 00 00    	lea    0xfbc(%eax),%edx
  3629de:	83 ec 04             	sub    $0x4,%esp
  3629e1:	6a 44                	push   $0x44
  3629e3:	8d 45 a8             	lea    -0x58(%ebp),%eax
  3629e6:	50                   	push   %eax
  3629e7:	52                   	push   %edx
  3629e8:	e8 fe f1 ff ff       	call   361beb <memcpy>
  3629ed:	83 c4 10             	add    $0x10,%esp
  3629f0:	8b 45 f0             	mov    -0x10(%ebp),%eax
  3629f3:	8b 7d fc             	mov    -0x4(%ebp),%edi
  3629f6:	c9                   	leave  
  3629f7:	c3                   	ret    

003629f8 <_mm_init>:
  3629f8:	55                   	push   %ebp
  3629f9:	89 e5                	mov    %esp,%ebp
  3629fb:	57                   	push   %edi
  3629fc:	56                   	push   %esi
  3629fd:	53                   	push   %ebx
  3629fe:	83 ec 2c             	sub    $0x2c,%esp
  362a01:	b8 03 00 00 00       	mov    $0x3,%eax
  362a06:	bb 03 00 00 00       	mov    $0x3,%ebx
  362a0b:	b9 06 1e 36 00       	mov    $0x361e06,%ecx
  362a10:	ba 00 00 00 00       	mov    $0x0,%edx
  362a15:	be 00 00 00 00       	mov    $0x0,%esi
  362a1a:	bf 00 00 00 00       	mov    $0x0,%edi
  362a1f:	cd 80                	int    $0x80
  362a21:	89 45 e4             	mov    %eax,-0x1c(%ebp)
  362a24:	b8 03 00 00 00       	mov    $0x3,%eax
  362a29:	bb 01 00 00 00       	mov    $0x1,%ebx
  362a2e:	b9 9b 20 36 00       	mov    $0x36209b,%ecx
  362a33:	ba 00 00 00 00       	mov    $0x0,%edx
  362a38:	be 00 00 00 00       	mov    $0x0,%esi
  362a3d:	bf 00 00 00 00       	mov    $0x0,%edi
  362a42:	cd 80                	int    $0x80
  362a44:	89 45 e0             	mov    %eax,-0x20(%ebp)
  362a47:	b8 03 00 00 00       	mov    $0x3,%eax
  362a4c:	bb 10 00 00 00       	mov    $0x10,%ebx
  362a51:	b9 21 22 36 00       	mov    $0x362221,%ecx
  362a56:	ba 00 00 00 00       	mov    $0x0,%edx
  362a5b:	be 00 00 00 00       	mov    $0x0,%esi
  362a60:	bf 00 00 00 00       	mov    $0x0,%edi
  362a65:	cd 80                	int    $0x80
  362a67:	89 45 dc             	mov    %eax,-0x24(%ebp)
  362a6a:	b8 03 00 00 00       	mov    $0x3,%eax
  362a6f:	bb 11 00 00 00       	mov    $0x11,%ebx
  362a74:	b9 aa 25 36 00       	mov    $0x3625aa,%ecx
  362a79:	ba 00 00 00 00       	mov    $0x0,%edx
  362a7e:	be 00 00 00 00       	mov    $0x0,%esi
  362a83:	bf 00 00 00 00       	mov    $0x0,%edi
  362a88:	cd 80                	int    $0x80
  362a8a:	89 45 d8             	mov    %eax,-0x28(%ebp)
  362a8d:	b8 03 00 00 00       	mov    $0x3,%eax
  362a92:	bb 12 00 00 00       	mov    $0x12,%ebx
  362a97:	b9 15 27 36 00       	mov    $0x362715,%ecx
  362a9c:	ba 00 00 00 00       	mov    $0x0,%edx
  362aa1:	be 00 00 00 00       	mov    $0x0,%esi
  362aa6:	bf 00 00 00 00       	mov    $0x0,%edi
  362aab:	cd 80                	int    $0x80
  362aad:	89 45 d4             	mov    %eax,-0x2c(%ebp)
  362ab0:	b8 03 00 00 00       	mov    $0x3,%eax
  362ab5:	bb 13 00 00 00       	mov    $0x13,%ebx
  362aba:	b9 3a 28 36 00       	mov    $0x36283a,%ecx
  362abf:	ba 00 00 00 00       	mov    $0x0,%edx
  362ac4:	be 00 00 00 00       	mov    $0x0,%esi
  362ac9:	bf 00 00 00 00       	mov    $0x0,%edi
  362ace:	cd 80                	int    $0x80
  362ad0:	89 45 d0             	mov    %eax,-0x30(%ebp)
  362ad3:	83 ec 08             	sub    $0x8,%esp
  362ad6:	68 ad ab 36 00       	push   $0x36abad
  362adb:	68 45 d3 36 00       	push   $0x36d345
  362ae0:	e8 1a fe ff ff       	call   3628ff <make_task>
  362ae5:	83 c4 10             	add    $0x10,%esp
  362ae8:	89 45 cc             	mov    %eax,-0x34(%ebp)
  362aeb:	8b 15 c4 37 37 00    	mov    0x3737c4,%edx
  362af1:	8b 45 cc             	mov    -0x34(%ebp),%eax
  362af4:	89 90 d8 00 00 00    	mov    %edx,0xd8(%eax)
  362afa:	8b 45 cc             	mov    -0x34(%ebp),%eax
  362afd:	8b 18                	mov    (%eax),%ebx
  362aff:	b8 02 00 00 00       	mov    $0x2,%eax
  362b04:	b9 00 00 00 00       	mov    $0x0,%ecx
  362b09:	ba 00 00 00 00       	mov    $0x0,%edx
  362b0e:	be 00 00 00 00       	mov    $0x0,%esi
  362b13:	bf 00 00 00 00       	mov    $0x0,%edi
  362b18:	cd 80                	int    $0x80
  362b1a:	89 45 c8             	mov    %eax,-0x38(%ebp)
  362b1d:	8d 65 f4             	lea    -0xc(%ebp),%esp
  362b20:	5b                   	pop    %ebx
  362b21:	5e                   	pop    %esi
  362b22:	5f                   	pop    %edi
  362b23:	5d                   	pop    %ebp
  362b24:	c3                   	ret    

00362b25 <mm_main>:
  362b25:	55                   	push   %ebp
  362b26:	89 e5                	mov    %esp,%ebp
  362b28:	57                   	push   %edi
  362b29:	56                   	push   %esi
  362b2a:	53                   	push   %ebx
  362b2b:	83 ec 1c             	sub    $0x1c,%esp
  362b2e:	e8 c5 fe ff ff       	call   3629f8 <_mm_init>
  362b33:	b8 00 00 00 00       	mov    $0x0,%eax
  362b38:	bb 00 00 00 00       	mov    $0x0,%ebx
  362b3d:	b9 00 00 00 00       	mov    $0x0,%ecx
  362b42:	ba 00 00 00 00       	mov    $0x0,%edx
  362b47:	be 00 00 00 00       	mov    $0x0,%esi
  362b4c:	bf 00 00 00 00       	mov    $0x0,%edi
  362b51:	cd 80                	int    $0x80
  362b53:	89 45 e4             	mov    %eax,-0x1c(%ebp)
  362b56:	b8 00 00 00 00       	mov    $0x0,%eax
  362b5b:	83 c4 1c             	add    $0x1c,%esp
  362b5e:	5b                   	pop    %ebx
  362b5f:	5e                   	pop    %esi
  362b60:	5f                   	pop    %edi
  362b61:	5d                   	pop    %ebp
  362b62:	c3                   	ret    

00362b63 <outb>:
  362b63:	55                   	push   %ebp
  362b64:	89 e5                	mov    %esp,%ebp
  362b66:	83 ec 08             	sub    $0x8,%esp
  362b69:	8b 55 08             	mov    0x8(%ebp),%edx
  362b6c:	8b 45 0c             	mov    0xc(%ebp),%eax
  362b6f:	88 55 fc             	mov    %dl,-0x4(%ebp)
  362b72:	66 89 45 f8          	mov    %ax,-0x8(%ebp)
  362b76:	0f b6 45 fc          	movzbl -0x4(%ebp),%eax
  362b7a:	0f b7 55 f8          	movzwl -0x8(%ebp),%edx
  362b7e:	ee                   	out    %al,(%dx)
  362b7f:	c9                   	leave  
  362b80:	c3                   	ret    

00362b81 <inb>:
  362b81:	55                   	push   %ebp
  362b82:	89 e5                	mov    %esp,%ebp
  362b84:	83 ec 14             	sub    $0x14,%esp
  362b87:	8b 45 08             	mov    0x8(%ebp),%eax
  362b8a:	66 89 45 ec          	mov    %ax,-0x14(%ebp)
  362b8e:	0f b7 45 ec          	movzwl -0x14(%ebp),%eax
  362b92:	89 c2                	mov    %eax,%edx
  362b94:	ec                   	in     (%dx),%al
  362b95:	88 45 ff             	mov    %al,-0x1(%ebp)
  362b98:	0f b6 45 ff          	movzbl -0x1(%ebp),%eax
  362b9c:	c9                   	leave  
  362b9d:	c3                   	ret    

00362b9e <io_delay>:
  362b9e:	55                   	push   %ebp
  362b9f:	89 e5                	mov    %esp,%ebp
  362ba1:	83 ec 10             	sub    $0x10,%esp
  362ba4:	66 c7 45 fe 80 00    	movw   $0x80,-0x2(%ebp)
  362baa:	0f b7 45 fe          	movzwl -0x2(%ebp),%eax
  362bae:	89 c2                	mov    %eax,%edx
  362bb0:	ee                   	out    %al,(%dx)
  362bb1:	c9                   	leave  
  362bb2:	c3                   	ret    

00362bb3 <outb_p>:
  362bb3:	55                   	push   %ebp
  362bb4:	89 e5                	mov    %esp,%ebp
  362bb6:	83 ec 08             	sub    $0x8,%esp
  362bb9:	8b 55 08             	mov    0x8(%ebp),%edx
  362bbc:	8b 45 0c             	mov    0xc(%ebp),%eax
  362bbf:	88 55 fc             	mov    %dl,-0x4(%ebp)
  362bc2:	66 89 45 f8          	mov    %ax,-0x8(%ebp)
  362bc6:	0f b7 55 f8          	movzwl -0x8(%ebp),%edx
  362bca:	0f b6 45 fc          	movzbl -0x4(%ebp),%eax
  362bce:	52                   	push   %edx
  362bcf:	50                   	push   %eax
  362bd0:	e8 8e ff ff ff       	call   362b63 <outb>
  362bd5:	83 c4 08             	add    $0x8,%esp
  362bd8:	e8 c1 ff ff ff       	call   362b9e <io_delay>
  362bdd:	c9                   	leave  
  362bde:	c3                   	ret    

00362bdf <inb_p>:
  362bdf:	55                   	push   %ebp
  362be0:	89 e5                	mov    %esp,%ebp
  362be2:	83 ec 14             	sub    $0x14,%esp
  362be5:	8b 45 08             	mov    0x8(%ebp),%eax
  362be8:	66 89 45 ec          	mov    %ax,-0x14(%ebp)
  362bec:	0f b7 45 ec          	movzwl -0x14(%ebp),%eax
  362bf0:	50                   	push   %eax
  362bf1:	e8 8b ff ff ff       	call   362b81 <inb>
  362bf6:	83 c4 04             	add    $0x4,%esp
  362bf9:	88 45 ff             	mov    %al,-0x1(%ebp)
  362bfc:	e8 9d ff ff ff       	call   362b9e <io_delay>
  362c01:	0f b6 45 ff          	movzbl -0x1(%ebp),%eax
  362c05:	c9                   	leave  
  362c06:	c3                   	ret    

00362c07 <_add>:
  362c07:	55                   	push   %ebp
  362c08:	89 e5                	mov    %esp,%ebp
  362c0a:	83 ec 10             	sub    $0x10,%esp
  362c0d:	a1 cc 31 37 00       	mov    0x3731cc,%eax
  362c12:	85 c0                	test   %eax,%eax
  362c14:	75 26                	jne    362c3c <_add+0x35>
  362c16:	8b 45 08             	mov    0x8(%ebp),%eax
  362c19:	a3 cc 31 37 00       	mov    %eax,0x3731cc
  362c1e:	a1 cc 31 37 00       	mov    0x3731cc,%eax
  362c23:	8b 15 cc 31 37 00    	mov    0x3731cc,%edx
  362c29:	89 50 14             	mov    %edx,0x14(%eax)
  362c2c:	a1 cc 31 37 00       	mov    0x3731cc,%eax
  362c31:	8b 15 cc 31 37 00    	mov    0x3731cc,%edx
  362c37:	89 50 18             	mov    %edx,0x18(%eax)
  362c3a:	eb 6c                	jmp    362ca8 <_add+0xa1>
  362c3c:	a1 cc 31 37 00       	mov    0x3731cc,%eax
  362c41:	89 45 fc             	mov    %eax,-0x4(%ebp)
  362c44:	8b 45 08             	mov    0x8(%ebp),%eax
  362c47:	8b 50 08             	mov    0x8(%eax),%edx
  362c4a:	8b 45 fc             	mov    -0x4(%ebp),%eax
  362c4d:	8b 40 08             	mov    0x8(%eax),%eax
  362c50:	39 c2                	cmp    %eax,%edx
  362c52:	7d 02                	jge    362c56 <_add+0x4f>
  362c54:	eb 13                	jmp    362c69 <_add+0x62>
  362c56:	8b 45 fc             	mov    -0x4(%ebp),%eax
  362c59:	8b 40 14             	mov    0x14(%eax),%eax
  362c5c:	89 45 fc             	mov    %eax,-0x4(%ebp)
  362c5f:	a1 cc 31 37 00       	mov    0x3731cc,%eax
  362c64:	39 45 fc             	cmp    %eax,-0x4(%ebp)
  362c67:	75 db                	jne    362c44 <_add+0x3d>
  362c69:	8b 45 08             	mov    0x8(%ebp),%eax
  362c6c:	8b 55 fc             	mov    -0x4(%ebp),%edx
  362c6f:	89 50 14             	mov    %edx,0x14(%eax)
  362c72:	8b 45 fc             	mov    -0x4(%ebp),%eax
  362c75:	8b 50 18             	mov    0x18(%eax),%edx
  362c78:	8b 45 08             	mov    0x8(%ebp),%eax
  362c7b:	89 50 18             	mov    %edx,0x18(%eax)
  362c7e:	8b 45 fc             	mov    -0x4(%ebp),%eax
  362c81:	8b 55 08             	mov    0x8(%ebp),%edx
  362c84:	89 50 18             	mov    %edx,0x18(%eax)
  362c87:	a1 cc 31 37 00       	mov    0x3731cc,%eax
  362c8c:	8b 50 08             	mov    0x8(%eax),%edx
  362c8f:	8b 45 08             	mov    0x8(%ebp),%eax
  362c92:	8b 40 08             	mov    0x8(%eax),%eax
  362c95:	39 c2                	cmp    %eax,%edx
  362c97:	7e 05                	jle    362c9e <_add+0x97>
  362c99:	8b 45 08             	mov    0x8(%ebp),%eax
  362c9c:	eb 05                	jmp    362ca3 <_add+0x9c>
  362c9e:	a1 cc 31 37 00       	mov    0x3731cc,%eax
  362ca3:	a3 cc 31 37 00       	mov    %eax,0x3731cc
  362ca8:	c9                   	leave  
  362ca9:	c3                   	ret    

00362caa <_sub>:
  362caa:	55                   	push   %ebp
  362cab:	89 e5                	mov    %esp,%ebp
  362cad:	83 ec 18             	sub    $0x18,%esp
  362cb0:	a1 d0 31 37 00       	mov    0x3731d0,%eax
  362cb5:	85 c0                	test   %eax,%eax
  362cb7:	74 61                	je     362d1a <_sub+0x70>
  362cb9:	a1 d0 31 37 00       	mov    0x3731d0,%eax
  362cbe:	8b 40 14             	mov    0x14(%eax),%eax
  362cc1:	89 45 f4             	mov    %eax,-0xc(%ebp)
  362cc4:	a1 d0 31 37 00       	mov    0x3731d0,%eax
  362cc9:	8b 40 18             	mov    0x18(%eax),%eax
  362ccc:	89 45 f0             	mov    %eax,-0x10(%ebp)
  362ccf:	8b 45 f4             	mov    -0xc(%ebp),%eax
  362cd2:	8b 55 f0             	mov    -0x10(%ebp),%edx
  362cd5:	89 50 18             	mov    %edx,0x18(%eax)
  362cd8:	8b 45 f0             	mov    -0x10(%ebp),%eax
  362cdb:	8b 55 f4             	mov    -0xc(%ebp),%edx
  362cde:	89 50 14             	mov    %edx,0x14(%eax)
  362ce1:	a1 d0 31 37 00       	mov    0x3731d0,%eax
  362ce6:	83 ec 08             	sub    $0x8,%esp
  362ce9:	6a 00                	push   $0x0
  362ceb:	50                   	push   %eax
  362cec:	e8 ae 8b 00 00       	call   36b89f <kfree_s>
  362cf1:	83 c4 10             	add    $0x10,%esp
  362cf4:	8b 45 f0             	mov    -0x10(%ebp),%eax
  362cf7:	3b 45 f4             	cmp    -0xc(%ebp),%eax
  362cfa:	74 0a                	je     362d06 <_sub+0x5c>
  362cfc:	8b 45 f4             	mov    -0xc(%ebp),%eax
  362cff:	a3 d0 31 37 00       	mov    %eax,0x3731d0
  362d04:	eb 14                	jmp    362d1a <_sub+0x70>
  362d06:	c7 05 d0 31 37 00 00 	movl   $0x0,0x3731d0
  362d0d:	00 00 00 
  362d10:	a1 d0 31 37 00       	mov    0x3731d0,%eax
  362d15:	a3 cc 31 37 00       	mov    %eax,0x3731cc
  362d1a:	c9                   	leave  
  362d1b:	c3                   	ret    

00362d1c <at_isbusy>:
  362d1c:	55                   	push   %ebp
  362d1d:	89 e5                	mov    %esp,%ebp
  362d1f:	83 ec 18             	sub    $0x18,%esp
  362d22:	c7 45 f4 50 c3 00 00 	movl   $0xc350,-0xc(%ebp)
  362d29:	eb 25                	jmp    362d50 <at_isbusy+0x34>
  362d2b:	68 f7 01 00 00       	push   $0x1f7
  362d30:	e8 aa fe ff ff       	call   362bdf <inb_p>
  362d35:	83 c4 04             	add    $0x4,%esp
  362d38:	88 45 f3             	mov    %al,-0xd(%ebp)
  362d3b:	80 65 f3 d0          	andb   $0xd0,-0xd(%ebp)
  362d3f:	80 7d f3 50          	cmpb   $0x50,-0xd(%ebp)
  362d43:	75 07                	jne    362d4c <at_isbusy+0x30>
  362d45:	b8 00 00 00 00       	mov    $0x0,%eax
  362d4a:	eb 24                	jmp    362d70 <at_isbusy+0x54>
  362d4c:	83 6d f4 01          	subl   $0x1,-0xc(%ebp)
  362d50:	83 7d f4 00          	cmpl   $0x0,-0xc(%ebp)
  362d54:	75 d5                	jne    362d2b <at_isbusy+0xf>
  362d56:	83 ec 08             	sub    $0x8,%esp
  362d59:	68 4c d3 36 00       	push   $0x36d34c
  362d5e:	68 54 d3 36 00       	push   $0x36d354
  362d63:	e8 20 63 00 00       	call   369088 <printk>
  362d68:	83 c4 10             	add    $0x10,%esp
  362d6b:	b8 01 00 00 00       	mov    $0x1,%eax
  362d70:	c9                   	leave  
  362d71:	c3                   	ret    

00362d72 <at_cmd>:
  362d72:	55                   	push   %ebp
  362d73:	89 e5                	mov    %esp,%ebp
  362d75:	53                   	push   %ebx
  362d76:	83 ec 2c             	sub    $0x2c,%esp
  362d79:	8b 5d 08             	mov    0x8(%ebp),%ebx
  362d7c:	8b 4d 0c             	mov    0xc(%ebp),%ecx
  362d7f:	8b 55 10             	mov    0x10(%ebp),%edx
  362d82:	8b 45 1c             	mov    0x1c(%ebp),%eax
  362d85:	88 5d e4             	mov    %bl,-0x1c(%ebp)
  362d88:	88 4d e0             	mov    %cl,-0x20(%ebp)
  362d8b:	88 55 dc             	mov    %dl,-0x24(%ebp)
  362d8e:	8b 55 14             	mov    0x14(%ebp),%edx
  362d91:	89 55 d0             	mov    %edx,-0x30(%ebp)
  362d94:	8b 55 18             	mov    0x18(%ebp),%edx
  362d97:	89 55 d4             	mov    %edx,-0x2c(%ebp)
  362d9a:	88 45 d8             	mov    %al,-0x28(%ebp)
  362d9d:	c6 45 f7 e0          	movb   $0xe0,-0x9(%ebp)
  362da1:	80 7d d8 00          	cmpb   $0x0,-0x28(%ebp)
  362da5:	74 04                	je     362dab <at_cmd+0x39>
  362da7:	80 4d f7 10          	orb    $0x10,-0x9(%ebp)
  362dab:	8b 45 d0             	mov    -0x30(%ebp),%eax
  362dae:	8b 55 d4             	mov    -0x2c(%ebp),%edx
  362db1:	0f ac d0 18          	shrd   $0x18,%edx,%eax
  362db5:	c1 ea 18             	shr    $0x18,%edx
  362db8:	83 e0 0f             	and    $0xf,%eax
  362dbb:	08 45 f7             	or     %al,-0x9(%ebp)
  362dbe:	8b 45 d0             	mov    -0x30(%ebp),%eax
  362dc1:	88 45 f6             	mov    %al,-0xa(%ebp)
  362dc4:	8b 45 d0             	mov    -0x30(%ebp),%eax
  362dc7:	8b 55 d4             	mov    -0x2c(%ebp),%edx
  362dca:	0f ac d0 08          	shrd   $0x8,%edx,%eax
  362dce:	c1 ea 08             	shr    $0x8,%edx
  362dd1:	88 45 f5             	mov    %al,-0xb(%ebp)
  362dd4:	8b 45 d0             	mov    -0x30(%ebp),%eax
  362dd7:	8b 55 d4             	mov    -0x2c(%ebp),%edx
  362dda:	0f ac d0 10          	shrd   $0x10,%edx,%eax
  362dde:	c1 ea 10             	shr    $0x10,%edx
  362de1:	88 45 f4             	mov    %al,-0xc(%ebp)
  362de4:	68 f6 03 00 00       	push   $0x3f6
  362de9:	6a 00                	push   $0x0
  362deb:	e8 c3 fd ff ff       	call   362bb3 <outb_p>
  362df0:	83 c4 08             	add    $0x8,%esp
  362df3:	0f b6 45 e0          	movzbl -0x20(%ebp),%eax
  362df7:	68 f1 01 00 00       	push   $0x1f1
  362dfc:	50                   	push   %eax
  362dfd:	e8 b1 fd ff ff       	call   362bb3 <outb_p>
  362e02:	83 c4 08             	add    $0x8,%esp
  362e05:	0f b6 45 dc          	movzbl -0x24(%ebp),%eax
  362e09:	68 f2 01 00 00       	push   $0x1f2
  362e0e:	50                   	push   %eax
  362e0f:	e8 9f fd ff ff       	call   362bb3 <outb_p>
  362e14:	83 c4 08             	add    $0x8,%esp
  362e17:	0f b6 45 f6          	movzbl -0xa(%ebp),%eax
  362e1b:	68 f3 01 00 00       	push   $0x1f3
  362e20:	50                   	push   %eax
  362e21:	e8 8d fd ff ff       	call   362bb3 <outb_p>
  362e26:	83 c4 08             	add    $0x8,%esp
  362e29:	0f b6 45 f5          	movzbl -0xb(%ebp),%eax
  362e2d:	68 f4 01 00 00       	push   $0x1f4
  362e32:	50                   	push   %eax
  362e33:	e8 7b fd ff ff       	call   362bb3 <outb_p>
  362e38:	83 c4 08             	add    $0x8,%esp
  362e3b:	0f b6 45 f4          	movzbl -0xc(%ebp),%eax
  362e3f:	68 f5 01 00 00       	push   $0x1f5
  362e44:	50                   	push   %eax
  362e45:	e8 69 fd ff ff       	call   362bb3 <outb_p>
  362e4a:	83 c4 08             	add    $0x8,%esp
  362e4d:	0f b6 45 f7          	movzbl -0x9(%ebp),%eax
  362e51:	68 f6 01 00 00       	push   $0x1f6
  362e56:	50                   	push   %eax
  362e57:	e8 57 fd ff ff       	call   362bb3 <outb_p>
  362e5c:	83 c4 08             	add    $0x8,%esp
  362e5f:	0f b6 45 e4          	movzbl -0x1c(%ebp),%eax
  362e63:	68 f7 01 00 00       	push   $0x1f7
  362e68:	50                   	push   %eax
  362e69:	e8 45 fd ff ff       	call   362bb3 <outb_p>
  362e6e:	83 c4 08             	add    $0x8,%esp
  362e71:	8b 5d fc             	mov    -0x4(%ebp),%ebx
  362e74:	c9                   	leave  
  362e75:	c3                   	ret    

00362e76 <_doio>:
  362e76:	55                   	push   %ebp
  362e77:	89 e5                	mov    %esp,%ebp
  362e79:	57                   	push   %edi
  362e7a:	56                   	push   %esi
  362e7b:	53                   	push   %ebx
  362e7c:	83 ec 2c             	sub    $0x2c,%esp
  362e7f:	a1 d0 31 37 00       	mov    0x3731d0,%eax
  362e84:	8b 40 04             	mov    0x4(%eax),%eax
  362e87:	89 45 e0             	mov    %eax,-0x20(%ebp)
  362e8a:	a1 d0 31 37 00       	mov    0x3731d0,%eax
  362e8f:	8b 40 0c             	mov    0xc(%eax),%eax
  362e92:	89 45 dc             	mov    %eax,-0x24(%ebp)
  362e95:	a1 d0 31 37 00       	mov    0x3731d0,%eax
  362e9a:	8b 40 08             	mov    0x8(%eax),%eax
  362e9d:	89 45 d8             	mov    %eax,-0x28(%ebp)
  362ea0:	8b 45 d8             	mov    -0x28(%ebp),%eax
  362ea3:	99                   	cltd   
  362ea4:	8b 4d dc             	mov    -0x24(%ebp),%ecx
  362ea7:	0f b6 d9             	movzbl %cl,%ebx
  362eaa:	8b 4d e0             	mov    -0x20(%ebp),%ecx
  362ead:	0f b6 c9             	movzbl %cl,%ecx
  362eb0:	6a 00                	push   $0x0
  362eb2:	52                   	push   %edx
  362eb3:	50                   	push   %eax
  362eb4:	53                   	push   %ebx
  362eb5:	6a 00                	push   $0x0
  362eb7:	51                   	push   %ecx
  362eb8:	e8 b5 fe ff ff       	call   362d72 <at_cmd>
  362ebd:	83 c4 18             	add    $0x18,%esp
  362ec0:	e8 57 fe ff ff       	call   362d1c <at_isbusy>
  362ec5:	84 c0                	test   %al,%al
  362ec7:	74 2a                	je     362ef3 <_doio+0x7d>
  362ec9:	a1 d0 31 37 00       	mov    0x3731d0,%eax
  362ece:	8b 18                	mov    (%eax),%ebx
  362ed0:	b8 02 00 00 00       	mov    $0x2,%eax
  362ed5:	b9 f0 ff ff ff       	mov    $0xfffffff0,%ecx
  362eda:	ba 00 00 00 00       	mov    $0x0,%edx
  362edf:	be 00 00 00 00       	mov    $0x0,%esi
  362ee4:	bf 00 00 00 00       	mov    $0x0,%edi
  362ee9:	cd 80                	int    $0x80
  362eeb:	89 45 d4             	mov    %eax,-0x2c(%ebp)
  362eee:	e8 b7 fd ff ff       	call   362caa <_sub>
  362ef3:	83 7d e0 30          	cmpl   $0x30,-0x20(%ebp)
  362ef7:	75 70                	jne    362f69 <_doio+0xf3>
  362ef9:	a1 d0 31 37 00       	mov    0x3731d0,%eax
  362efe:	8b 40 10             	mov    0x10(%eax),%eax
  362f01:	89 45 d0             	mov    %eax,-0x30(%ebp)
  362f04:	c7 45 e4 50 c3 00 00 	movl   $0xc350,-0x1c(%ebp)
  362f0b:	eb 04                	jmp    362f11 <_doio+0x9b>
  362f0d:	83 6d e4 01          	subl   $0x1,-0x1c(%ebp)
  362f11:	83 7d e4 00          	cmpl   $0x0,-0x1c(%ebp)
  362f15:	74 1a                	je     362f31 <_doio+0xbb>
  362f17:	83 ec 0c             	sub    $0xc,%esp
  362f1a:	68 f7 01 00 00       	push   $0x1f7
  362f1f:	e8 bb fc ff ff       	call   362bdf <inb_p>
  362f24:	83 c4 10             	add    $0x10,%esp
  362f27:	0f b6 c0             	movzbl %al,%eax
  362f2a:	83 e0 08             	and    $0x8,%eax
  362f2d:	85 c0                	test   %eax,%eax
  362f2f:	74 dc                	je     362f0d <_doio+0x97>
  362f31:	ba f0 01 00 00       	mov    $0x1f0,%edx
  362f36:	8b 45 d0             	mov    -0x30(%ebp),%eax
  362f39:	b9 00 01 00 00       	mov    $0x100,%ecx
  362f3e:	89 c6                	mov    %eax,%esi
  362f40:	fc                   	cld    
  362f41:	f3 66 6f             	rep outsw %ds:(%esi),(%dx)
  362f44:	a1 d0 31 37 00       	mov    0x3731d0,%eax
  362f49:	8b 50 0c             	mov    0xc(%eax),%edx
  362f4c:	83 ea 01             	sub    $0x1,%edx
  362f4f:	89 50 0c             	mov    %edx,0xc(%eax)
  362f52:	a1 d0 31 37 00       	mov    0x3731d0,%eax
  362f57:	8b 15 d0 31 37 00    	mov    0x3731d0,%edx
  362f5d:	8b 52 10             	mov    0x10(%edx),%edx
  362f60:	81 c2 00 02 00 00    	add    $0x200,%edx
  362f66:	89 50 10             	mov    %edx,0x10(%eax)
  362f69:	8d 65 f4             	lea    -0xc(%ebp),%esp
  362f6c:	5b                   	pop    %ebx
  362f6d:	5e                   	pop    %esi
  362f6e:	5f                   	pop    %edi
  362f6f:	5d                   	pop    %ebp
  362f70:	c3                   	ret    

00362f71 <_rw>:
  362f71:	55                   	push   %ebp
  362f72:	89 e5                	mov    %esp,%ebp
  362f74:	57                   	push   %edi
  362f75:	56                   	push   %esi
  362f76:	53                   	push   %ebx
  362f77:	83 ec 1c             	sub    $0x1c,%esp
  362f7a:	83 ec 0c             	sub    $0xc,%esp
  362f7d:	6a 1c                	push   $0x1c
  362f7f:	e8 af 87 00 00       	call   36b733 <kalloc>
  362f84:	83 c4 10             	add    $0x10,%esp
  362f87:	89 45 e4             	mov    %eax,-0x1c(%ebp)
  362f8a:	83 7d e4 00          	cmpl   $0x0,-0x1c(%ebp)
  362f8e:	74 52                	je     362fe2 <_rw+0x71>
  362f90:	8b 45 e4             	mov    -0x1c(%ebp),%eax
  362f93:	8b 55 08             	mov    0x8(%ebp),%edx
  362f96:	89 10                	mov    %edx,(%eax)
  362f98:	8b 45 e4             	mov    -0x1c(%ebp),%eax
  362f9b:	8b 55 0c             	mov    0xc(%ebp),%edx
  362f9e:	89 50 04             	mov    %edx,0x4(%eax)
  362fa1:	8b 45 e4             	mov    -0x1c(%ebp),%eax
  362fa4:	8b 55 14             	mov    0x14(%ebp),%edx
  362fa7:	89 50 08             	mov    %edx,0x8(%eax)
  362faa:	8b 45 e4             	mov    -0x1c(%ebp),%eax
  362fad:	8b 55 18             	mov    0x18(%ebp),%edx
  362fb0:	89 50 0c             	mov    %edx,0xc(%eax)
  362fb3:	8b 45 e4             	mov    -0x1c(%ebp),%eax
  362fb6:	8b 55 10             	mov    0x10(%ebp),%edx
  362fb9:	89 50 10             	mov    %edx,0x10(%eax)
  362fbc:	83 ec 0c             	sub    $0xc,%esp
  362fbf:	ff 75 e4             	pushl  -0x1c(%ebp)
  362fc2:	e8 40 fc ff ff       	call   362c07 <_add>
  362fc7:	83 c4 10             	add    $0x10,%esp
  362fca:	a1 d0 31 37 00       	mov    0x3731d0,%eax
  362fcf:	85 c0                	test   %eax,%eax
  362fd1:	75 30                	jne    363003 <_rw+0x92>
  362fd3:	8b 45 e4             	mov    -0x1c(%ebp),%eax
  362fd6:	a3 d0 31 37 00       	mov    %eax,0x3731d0
  362fdb:	e8 96 fe ff ff       	call   362e76 <_doio>
  362fe0:	eb 21                	jmp    363003 <_rw+0x92>
  362fe2:	b8 02 00 00 00       	mov    $0x2,%eax
  362fe7:	8b 5d 08             	mov    0x8(%ebp),%ebx
  362fea:	b9 f4 ff ff ff       	mov    $0xfffffff4,%ecx
  362fef:	ba 00 00 00 00       	mov    $0x0,%edx
  362ff4:	be 00 00 00 00       	mov    $0x0,%esi
  362ff9:	bf 00 00 00 00       	mov    $0x0,%edi
  362ffe:	cd 80                	int    $0x80
  363000:	89 45 e0             	mov    %eax,-0x20(%ebp)
  363003:	8d 65 f4             	lea    -0xc(%ebp),%esp
  363006:	5b                   	pop    %ebx
  363007:	5e                   	pop    %esi
  363008:	5f                   	pop    %edi
  363009:	5d                   	pop    %ebp
  36300a:	c3                   	ret    

0036300b <at_readpage>:
  36300b:	55                   	push   %ebp
  36300c:	89 e5                	mov    %esp,%ebp
  36300e:	83 ec 08             	sub    $0x8,%esp
  363011:	8b 45 10             	mov    0x10(%ebp),%eax
  363014:	8d 14 00             	lea    (%eax,%eax,1),%edx
  363017:	8b 45 14             	mov    0x14(%ebp),%eax
  36301a:	01 c0                	add    %eax,%eax
  36301c:	83 ec 0c             	sub    $0xc,%esp
  36301f:	52                   	push   %edx
  363020:	50                   	push   %eax
  363021:	ff 75 0c             	pushl  0xc(%ebp)
  363024:	6a 20                	push   $0x20
  363026:	ff 75 08             	pushl  0x8(%ebp)
  363029:	e8 43 ff ff ff       	call   362f71 <_rw>
  36302e:	83 c4 20             	add    $0x20,%esp
  363031:	c9                   	leave  
  363032:	c3                   	ret    

00363033 <at_writepage>:
  363033:	55                   	push   %ebp
  363034:	89 e5                	mov    %esp,%ebp
  363036:	83 ec 08             	sub    $0x8,%esp
  363039:	8b 45 10             	mov    0x10(%ebp),%eax
  36303c:	8d 14 00             	lea    (%eax,%eax,1),%edx
  36303f:	8b 45 14             	mov    0x14(%ebp),%eax
  363042:	01 c0                	add    %eax,%eax
  363044:	83 ec 0c             	sub    $0xc,%esp
  363047:	52                   	push   %edx
  363048:	50                   	push   %eax
  363049:	ff 75 0c             	pushl  0xc(%ebp)
  36304c:	6a 30                	push   $0x30
  36304e:	ff 75 08             	pushl  0x8(%ebp)
  363051:	e8 1b ff ff ff       	call   362f71 <_rw>
  363056:	83 c4 20             	add    $0x20,%esp
  363059:	c9                   	leave  
  36305a:	c3                   	ret    

0036305b <_io>:
  36305b:	55                   	push   %ebp
  36305c:	89 e5                	mov    %esp,%ebp
  36305e:	57                   	push   %edi
  36305f:	56                   	push   %esi
  363060:	53                   	push   %ebx
  363061:	83 ec 2c             	sub    $0x2c,%esp
  363064:	68 f7 01 00 00       	push   $0x1f7
  363069:	e8 13 fb ff ff       	call   362b81 <inb>
  36306e:	83 c4 04             	add    $0x4,%esp
  363071:	0f b6 c0             	movzbl %al,%eax
  363074:	89 45 e0             	mov    %eax,-0x20(%ebp)
  363077:	a1 d0 31 37 00       	mov    0x3731d0,%eax
  36307c:	85 c0                	test   %eax,%eax
  36307e:	0f 84 4f 01 00 00    	je     3631d3 <_io+0x178>
  363084:	a1 d0 31 37 00       	mov    0x3731d0,%eax
  363089:	8b 40 10             	mov    0x10(%eax),%eax
  36308c:	89 45 dc             	mov    %eax,-0x24(%ebp)
  36308f:	e8 88 fc ff ff       	call   362d1c <at_isbusy>
  363094:	84 c0                	test   %al,%al
  363096:	74 25                	je     3630bd <_io+0x62>
  363098:	a1 d0 31 37 00       	mov    0x3731d0,%eax
  36309d:	8b 18                	mov    (%eax),%ebx
  36309f:	b8 02 00 00 00       	mov    $0x2,%eax
  3630a4:	b9 f0 ff ff ff       	mov    $0xfffffff0,%ecx
  3630a9:	ba 00 00 00 00       	mov    $0x0,%edx
  3630ae:	be 00 00 00 00       	mov    $0x0,%esi
  3630b3:	bf 00 00 00 00       	mov    $0x0,%edi
  3630b8:	cd 80                	int    $0x80
  3630ba:	89 45 d8             	mov    %eax,-0x28(%ebp)
  3630bd:	8b 45 e0             	mov    -0x20(%ebp),%eax
  3630c0:	83 e0 40             	and    $0x40,%eax
  3630c3:	85 c0                	test   %eax,%eax
  3630c5:	0f 84 c4 00 00 00    	je     36318f <_io+0x134>
  3630cb:	a1 d0 31 37 00       	mov    0x3731d0,%eax
  3630d0:	8b 40 04             	mov    0x4(%eax),%eax
  3630d3:	83 f8 20             	cmp    $0x20,%eax
  3630d6:	75 15                	jne    3630ed <_io+0x92>
  3630d8:	ba f0 01 00 00       	mov    $0x1f0,%edx
  3630dd:	8b 45 dc             	mov    -0x24(%ebp),%eax
  3630e0:	b9 00 01 00 00       	mov    $0x100,%ecx
  3630e5:	89 c7                	mov    %eax,%edi
  3630e7:	fc                   	cld    
  3630e8:	f3 66 6d             	rep insw (%dx),%es:(%edi)
  3630eb:	eb 7d                	jmp    36316a <_io+0x10f>
  3630ed:	a1 d0 31 37 00       	mov    0x3731d0,%eax
  3630f2:	8b 40 04             	mov    0x4(%eax),%eax
  3630f5:	83 f8 30             	cmp    $0x30,%eax
  3630f8:	75 42                	jne    36313c <_io+0xe1>
  3630fa:	c7 45 e4 50 c3 00 00 	movl   $0xc350,-0x1c(%ebp)
  363101:	eb 04                	jmp    363107 <_io+0xac>
  363103:	83 6d e4 01          	subl   $0x1,-0x1c(%ebp)
  363107:	83 7d e4 00          	cmpl   $0x0,-0x1c(%ebp)
  36310b:	74 1a                	je     363127 <_io+0xcc>
  36310d:	83 ec 0c             	sub    $0xc,%esp
  363110:	68 f7 01 00 00       	push   $0x1f7
  363115:	e8 c5 fa ff ff       	call   362bdf <inb_p>
  36311a:	83 c4 10             	add    $0x10,%esp
  36311d:	0f b6 c0             	movzbl %al,%eax
  363120:	83 e0 08             	and    $0x8,%eax
  363123:	85 c0                	test   %eax,%eax
  363125:	74 dc                	je     363103 <_io+0xa8>
  363127:	ba f0 01 00 00       	mov    $0x1f0,%edx
  36312c:	8b 45 dc             	mov    -0x24(%ebp),%eax
  36312f:	b9 00 01 00 00       	mov    $0x100,%ecx
  363134:	89 c6                	mov    %eax,%esi
  363136:	fc                   	cld    
  363137:	f3 66 6f             	rep outsw %ds:(%esi),(%dx)
  36313a:	eb 2e                	jmp    36316a <_io+0x10f>
  36313c:	a1 d0 31 37 00       	mov    0x3731d0,%eax
  363141:	8b 40 04             	mov    0x4(%eax),%eax
  363144:	83 ec 04             	sub    $0x4,%esp
  363147:	50                   	push   %eax
  363148:	68 4c d3 36 00       	push   $0x36d34c
  36314d:	68 80 d3 36 00       	push   $0x36d380
  363152:	e8 31 5f 00 00       	call   369088 <printk>
  363157:	83 c4 10             	add    $0x10,%esp
  36315a:	83 ec 0c             	sub    $0xc,%esp
  36315d:	68 a4 d3 36 00       	push   $0x36d3a4
  363162:	e8 05 5f 00 00       	call   36906c <panic>
  363167:	83 c4 10             	add    $0x10,%esp
  36316a:	a1 d0 31 37 00       	mov    0x3731d0,%eax
  36316f:	8b 15 d0 31 37 00    	mov    0x3731d0,%edx
  363175:	8b 52 10             	mov    0x10(%edx),%edx
  363178:	81 c2 00 02 00 00    	add    $0x200,%edx
  36317e:	89 50 10             	mov    %edx,0x10(%eax)
  363181:	a1 d0 31 37 00       	mov    0x3731d0,%eax
  363186:	8b 50 0c             	mov    0xc(%eax),%edx
  363189:	83 ea 01             	sub    $0x1,%edx
  36318c:	89 50 0c             	mov    %edx,0xc(%eax)
  36318f:	a1 d0 31 37 00       	mov    0x3731d0,%eax
  363194:	8b 40 0c             	mov    0xc(%eax),%eax
  363197:	85 c0                	test   %eax,%eax
  363199:	75 38                	jne    3631d3 <_io+0x178>
  36319b:	a1 d0 31 37 00       	mov    0x3731d0,%eax
  3631a0:	8b 18                	mov    (%eax),%ebx
  3631a2:	b8 02 00 00 00       	mov    $0x2,%eax
  3631a7:	b9 00 00 00 00       	mov    $0x0,%ecx
  3631ac:	ba 00 00 00 00       	mov    $0x0,%edx
  3631b1:	be 00 00 00 00       	mov    $0x0,%esi
  3631b6:	bf 00 00 00 00       	mov    $0x0,%edi
  3631bb:	cd 80                	int    $0x80
  3631bd:	89 45 d4             	mov    %eax,-0x2c(%ebp)
  3631c0:	e8 e5 fa ff ff       	call   362caa <_sub>
  3631c5:	a1 d0 31 37 00       	mov    0x3731d0,%eax
  3631ca:	85 c0                	test   %eax,%eax
  3631cc:	74 05                	je     3631d3 <_io+0x178>
  3631ce:	e8 a3 fc ff ff       	call   362e76 <_doio>
  3631d3:	8d 65 f4             	lea    -0xc(%ebp),%esp
  3631d6:	5b                   	pop    %ebx
  3631d7:	5e                   	pop    %esi
  3631d8:	5f                   	pop    %edi
  3631d9:	5d                   	pop    %ebp
  3631da:	c3                   	ret    

003631db <at_init>:
  3631db:	55                   	push   %ebp
  3631dc:	89 e5                	mov    %esp,%ebp
  3631de:	57                   	push   %edi
  3631df:	56                   	push   %esi
  3631e0:	53                   	push   %ebx
  3631e1:	83 ec 1c             	sub    $0x1c,%esp
  3631e4:	83 ec 08             	sub    $0x8,%esp
  3631e7:	68 4c d3 36 00       	push   $0x36d34c
  3631ec:	68 c0 d3 36 00       	push   $0x36d3c0
  3631f1:	e8 92 5e 00 00       	call   369088 <printk>
  3631f6:	83 c4 10             	add    $0x10,%esp
  3631f9:	b8 03 00 00 00       	mov    $0x3,%eax
  3631fe:	bb 08 00 00 00       	mov    $0x8,%ebx
  363203:	b9 33 30 36 00       	mov    $0x363033,%ecx
  363208:	ba 00 00 00 00       	mov    $0x0,%edx
  36320d:	be 00 00 00 00       	mov    $0x0,%esi
  363212:	bf 00 00 00 00       	mov    $0x0,%edi
  363217:	cd 80                	int    $0x80
  363219:	89 45 e4             	mov    %eax,-0x1c(%ebp)
  36321c:	b8 03 00 00 00       	mov    $0x3,%eax
  363221:	bb 07 00 00 00       	mov    $0x7,%ebx
  363226:	b9 0b 30 36 00       	mov    $0x36300b,%ecx
  36322b:	ba 00 00 00 00       	mov    $0x0,%edx
  363230:	be 00 00 00 00       	mov    $0x0,%esi
  363235:	bf 00 00 00 00       	mov    $0x0,%edi
  36323a:	cd 80                	int    $0x80
  36323c:	89 45 e0             	mov    %eax,-0x20(%ebp)
  36323f:	b8 03 00 00 00       	mov    $0x3,%eax
  363244:	bb 0a 00 00 00       	mov    $0xa,%ebx
  363249:	b9 5b 30 36 00       	mov    $0x36305b,%ecx
  36324e:	ba 00 00 00 00       	mov    $0x0,%edx
  363253:	be 00 00 00 00       	mov    $0x0,%esi
  363258:	bf 00 00 00 00       	mov    $0x0,%edi
  36325d:	cd 80                	int    $0x80
  36325f:	89 45 dc             	mov    %eax,-0x24(%ebp)
  363262:	b8 01 00 00 00       	mov    $0x1,%eax
  363267:	bb 04 00 00 00       	mov    $0x4,%ebx
  36326c:	b9 13 00 00 00       	mov    $0x13,%ecx
  363271:	ba 0e 00 00 00       	mov    $0xe,%edx
  363276:	be 00 00 00 00       	mov    $0x0,%esi
  36327b:	bf 00 00 00 00       	mov    $0x0,%edi
  363280:	cd 80                	int    $0x80
  363282:	89 45 d8             	mov    %eax,-0x28(%ebp)
  363285:	83 ec 08             	sub    $0x8,%esp
  363288:	68 f6 03 00 00       	push   $0x3f6
  36328d:	6a 0c                	push   $0xc
  36328f:	e8 1f f9 ff ff       	call   362bb3 <outb_p>
  363294:	83 c4 10             	add    $0x10,%esp
  363297:	8d 65 f4             	lea    -0xc(%ebp),%esp
  36329a:	5b                   	pop    %ebx
  36329b:	5e                   	pop    %esi
  36329c:	5f                   	pop    %edi
  36329d:	5d                   	pop    %ebp
  36329e:	c3                   	ret    

0036329f <at_main>:
  36329f:	55                   	push   %ebp
  3632a0:	89 e5                	mov    %esp,%ebp
  3632a2:	57                   	push   %edi
  3632a3:	56                   	push   %esi
  3632a4:	53                   	push   %ebx
  3632a5:	83 ec 1c             	sub    $0x1c,%esp
  3632a8:	e8 2e ff ff ff       	call   3631db <at_init>
  3632ad:	83 ec 08             	sub    $0x8,%esp
  3632b0:	68 4c d3 36 00       	push   $0x36d34c
  3632b5:	68 d6 d3 36 00       	push   $0x36d3d6
  3632ba:	e8 c9 5d 00 00       	call   369088 <printk>
  3632bf:	83 c4 10             	add    $0x10,%esp
  3632c2:	b8 00 00 00 00       	mov    $0x0,%eax
  3632c7:	bb 00 00 00 00       	mov    $0x0,%ebx
  3632cc:	b9 00 00 00 00       	mov    $0x0,%ecx
  3632d1:	ba 00 00 00 00       	mov    $0x0,%edx
  3632d6:	be 00 00 00 00       	mov    $0x0,%esi
  3632db:	bf 00 00 00 00       	mov    $0x0,%edi
  3632e0:	cd 80                	int    $0x80
  3632e2:	89 45 e4             	mov    %eax,-0x1c(%ebp)
  3632e5:	b8 00 00 00 00       	mov    $0x0,%eax
  3632ea:	8d 65 f4             	lea    -0xc(%ebp),%esp
  3632ed:	5b                   	pop    %ebx
  3632ee:	5e                   	pop    %esi
  3632ef:	5f                   	pop    %edi
  3632f0:	5d                   	pop    %ebp
  3632f1:	c3                   	ret    

003632f2 <memcpy>:
  3632f2:	55                   	push   %ebp
  3632f3:	89 e5                	mov    %esp,%ebp
  3632f5:	57                   	push   %edi
  3632f6:	56                   	push   %esi
  3632f7:	53                   	push   %ebx
  3632f8:	8b 45 10             	mov    0x10(%ebp),%eax
  3632fb:	8b 55 0c             	mov    0xc(%ebp),%edx
  3632fe:	8b 5d 08             	mov    0x8(%ebp),%ebx
  363301:	89 c1                	mov    %eax,%ecx
  363303:	89 d6                	mov    %edx,%esi
  363305:	89 df                	mov    %ebx,%edi
  363307:	fc                   	cld    
  363308:	f3 a4                	rep movsb %ds:(%esi),%es:(%edi)
  36330a:	8b 45 08             	mov    0x8(%ebp),%eax
  36330d:	5b                   	pop    %ebx
  36330e:	5e                   	pop    %esi
  36330f:	5f                   	pop    %edi
  363310:	5d                   	pop    %ebp
  363311:	c3                   	ret    

00363312 <ramdisk_readpage>:
  363312:	55                   	push   %ebp
  363313:	89 e5                	mov    %esp,%ebp
  363315:	57                   	push   %edi
  363316:	56                   	push   %esi
  363317:	53                   	push   %ebx
  363318:	83 ec 10             	sub    $0x10,%esp
  36331b:	8b 45 14             	mov    0x14(%ebp),%eax
  36331e:	c1 e0 0a             	shl    $0xa,%eax
  363321:	89 45 f0             	mov    %eax,-0x10(%ebp)
  363324:	8b 45 10             	mov    0x10(%ebp),%eax
  363327:	c1 e0 0a             	shl    $0xa,%eax
  36332a:	89 c2                	mov    %eax,%edx
  36332c:	8b 0d dc 3c 37 00    	mov    0x373cdc,%ecx
  363332:	8b 45 f0             	mov    -0x10(%ebp),%eax
  363335:	29 c1                	sub    %eax,%ecx
  363337:	89 c8                	mov    %ecx,%eax
  363339:	39 c2                	cmp    %eax,%edx
  36333b:	0f 46 c2             	cmovbe %edx,%eax
  36333e:	89 45 ec             	mov    %eax,-0x14(%ebp)
  363341:	8b 55 f0             	mov    -0x10(%ebp),%edx
  363344:	a1 dc 3c 37 00       	mov    0x373cdc,%eax
  363349:	39 c2                	cmp    %eax,%edx
  36334b:	76 23                	jbe    363370 <ramdisk_readpage+0x5e>
  36334d:	b8 02 00 00 00       	mov    $0x2,%eax
  363352:	8b 5d 08             	mov    0x8(%ebp),%ebx
  363355:	b9 e4 ff ff ff       	mov    $0xffffffe4,%ecx
  36335a:	ba 00 00 00 00       	mov    $0x0,%edx
  36335f:	be 00 00 00 00       	mov    $0x0,%esi
  363364:	bf 00 00 00 00       	mov    $0x0,%edi
  363369:	cd 80                	int    $0x80
  36336b:	89 45 e8             	mov    %eax,-0x18(%ebp)
  36336e:	eb 3c                	jmp    3633ac <ramdisk_readpage+0x9a>
  363370:	8b 45 ec             	mov    -0x14(%ebp),%eax
  363373:	8b 0d d8 31 37 00    	mov    0x3731d8,%ecx
  363379:	8b 55 f0             	mov    -0x10(%ebp),%edx
  36337c:	01 ca                	add    %ecx,%edx
  36337e:	50                   	push   %eax
  36337f:	52                   	push   %edx
  363380:	ff 75 0c             	pushl  0xc(%ebp)
  363383:	e8 6a ff ff ff       	call   3632f2 <memcpy>
  363388:	83 c4 0c             	add    $0xc,%esp
  36338b:	b8 02 00 00 00       	mov    $0x2,%eax
  363390:	8b 5d 08             	mov    0x8(%ebp),%ebx
  363393:	b9 00 00 00 00       	mov    $0x0,%ecx
  363398:	ba 00 00 00 00       	mov    $0x0,%edx
  36339d:	be 00 00 00 00       	mov    $0x0,%esi
  3633a2:	bf 00 00 00 00       	mov    $0x0,%edi
  3633a7:	cd 80                	int    $0x80
  3633a9:	89 45 e4             	mov    %eax,-0x1c(%ebp)
  3633ac:	8d 65 f4             	lea    -0xc(%ebp),%esp
  3633af:	5b                   	pop    %ebx
  3633b0:	5e                   	pop    %esi
  3633b1:	5f                   	pop    %edi
  3633b2:	5d                   	pop    %ebp
  3633b3:	c3                   	ret    

003633b4 <ramdisk_writepage>:
  3633b4:	55                   	push   %ebp
  3633b5:	89 e5                	mov    %esp,%ebp
  3633b7:	57                   	push   %edi
  3633b8:	56                   	push   %esi
  3633b9:	53                   	push   %ebx
  3633ba:	83 ec 10             	sub    $0x10,%esp
  3633bd:	8b 45 14             	mov    0x14(%ebp),%eax
  3633c0:	c1 e0 0a             	shl    $0xa,%eax
  3633c3:	89 45 f0             	mov    %eax,-0x10(%ebp)
  3633c6:	8b 45 10             	mov    0x10(%ebp),%eax
  3633c9:	c1 e0 0a             	shl    $0xa,%eax
  3633cc:	89 c2                	mov    %eax,%edx
  3633ce:	8b 0d dc 3c 37 00    	mov    0x373cdc,%ecx
  3633d4:	8b 45 f0             	mov    -0x10(%ebp),%eax
  3633d7:	29 c1                	sub    %eax,%ecx
  3633d9:	89 c8                	mov    %ecx,%eax
  3633db:	39 c2                	cmp    %eax,%edx
  3633dd:	0f 46 c2             	cmovbe %edx,%eax
  3633e0:	89 45 ec             	mov    %eax,-0x14(%ebp)
  3633e3:	8b 55 f0             	mov    -0x10(%ebp),%edx
  3633e6:	a1 dc 3c 37 00       	mov    0x373cdc,%eax
  3633eb:	39 c2                	cmp    %eax,%edx
  3633ed:	76 23                	jbe    363412 <ramdisk_writepage+0x5e>
  3633ef:	b8 02 00 00 00       	mov    $0x2,%eax
  3633f4:	8b 5d 08             	mov    0x8(%ebp),%ebx
  3633f7:	b9 e4 ff ff ff       	mov    $0xffffffe4,%ecx
  3633fc:	ba 00 00 00 00       	mov    $0x0,%edx
  363401:	be 00 00 00 00       	mov    $0x0,%esi
  363406:	bf 00 00 00 00       	mov    $0x0,%edi
  36340b:	cd 80                	int    $0x80
  36340d:	89 45 e8             	mov    %eax,-0x18(%ebp)
  363410:	eb 3c                	jmp    36344e <ramdisk_writepage+0x9a>
  363412:	8b 45 ec             	mov    -0x14(%ebp),%eax
  363415:	8b 0d d8 31 37 00    	mov    0x3731d8,%ecx
  36341b:	8b 55 f0             	mov    -0x10(%ebp),%edx
  36341e:	01 ca                	add    %ecx,%edx
  363420:	50                   	push   %eax
  363421:	ff 75 0c             	pushl  0xc(%ebp)
  363424:	52                   	push   %edx
  363425:	e8 c8 fe ff ff       	call   3632f2 <memcpy>
  36342a:	83 c4 0c             	add    $0xc,%esp
  36342d:	b8 02 00 00 00       	mov    $0x2,%eax
  363432:	8b 5d 08             	mov    0x8(%ebp),%ebx
  363435:	b9 00 00 00 00       	mov    $0x0,%ecx
  36343a:	ba 00 00 00 00       	mov    $0x0,%edx
  36343f:	be 00 00 00 00       	mov    $0x0,%esi
  363444:	bf 00 00 00 00       	mov    $0x0,%edi
  363449:	cd 80                	int    $0x80
  36344b:	89 45 e4             	mov    %eax,-0x1c(%ebp)
  36344e:	8d 65 f4             	lea    -0xc(%ebp),%esp
  363451:	5b                   	pop    %ebx
  363452:	5e                   	pop    %esi
  363453:	5f                   	pop    %edi
  363454:	5d                   	pop    %ebp
  363455:	c3                   	ret    

00363456 <ramdisk_read>:
  363456:	55                   	push   %ebp
  363457:	89 e5                	mov    %esp,%ebp
  363459:	57                   	push   %edi
  36345a:	56                   	push   %esi
  36345b:	53                   	push   %ebx
  36345c:	83 ec 10             	sub    $0x10,%esp
  36345f:	a1 dc 3c 37 00       	mov    0x373cdc,%eax
  363464:	8b 15 dc 31 37 00    	mov    0x3731dc,%edx
  36346a:	29 d0                	sub    %edx,%eax
  36346c:	89 c2                	mov    %eax,%edx
  36346e:	8b 45 10             	mov    0x10(%ebp),%eax
  363471:	39 c2                	cmp    %eax,%edx
  363473:	0f 46 c2             	cmovbe %edx,%eax
  363476:	89 45 f0             	mov    %eax,-0x10(%ebp)
  363479:	8b 45 f0             	mov    -0x10(%ebp),%eax
  36347c:	8b 15 d8 31 37 00    	mov    0x3731d8,%edx
  363482:	8b 0d dc 31 37 00    	mov    0x3731dc,%ecx
  363488:	01 ca                	add    %ecx,%edx
  36348a:	50                   	push   %eax
  36348b:	52                   	push   %edx
  36348c:	ff 75 0c             	pushl  0xc(%ebp)
  36348f:	e8 5e fe ff ff       	call   3632f2 <memcpy>
  363494:	83 c4 0c             	add    $0xc,%esp
  363497:	a1 dc 31 37 00       	mov    0x3731dc,%eax
  36349c:	89 c2                	mov    %eax,%edx
  36349e:	8b 45 f0             	mov    -0x10(%ebp),%eax
  3634a1:	01 d0                	add    %edx,%eax
  3634a3:	a3 dc 31 37 00       	mov    %eax,0x3731dc
  3634a8:	b8 02 00 00 00       	mov    $0x2,%eax
  3634ad:	8b 5d 08             	mov    0x8(%ebp),%ebx
  3634b0:	8b 4d f0             	mov    -0x10(%ebp),%ecx
  3634b3:	ba 00 00 00 00       	mov    $0x0,%edx
  3634b8:	be 00 00 00 00       	mov    $0x0,%esi
  3634bd:	bf 00 00 00 00       	mov    $0x0,%edi
  3634c2:	cd 80                	int    $0x80
  3634c4:	89 45 ec             	mov    %eax,-0x14(%ebp)
  3634c7:	8d 65 f4             	lea    -0xc(%ebp),%esp
  3634ca:	5b                   	pop    %ebx
  3634cb:	5e                   	pop    %esi
  3634cc:	5f                   	pop    %edi
  3634cd:	5d                   	pop    %ebp
  3634ce:	c3                   	ret    

003634cf <ramdisk_write>:
  3634cf:	55                   	push   %ebp
  3634d0:	89 e5                	mov    %esp,%ebp
  3634d2:	57                   	push   %edi
  3634d3:	56                   	push   %esi
  3634d4:	53                   	push   %ebx
  3634d5:	83 ec 10             	sub    $0x10,%esp
  3634d8:	a1 dc 3c 37 00       	mov    0x373cdc,%eax
  3634dd:	8b 15 dc 31 37 00    	mov    0x3731dc,%edx
  3634e3:	29 d0                	sub    %edx,%eax
  3634e5:	89 c2                	mov    %eax,%edx
  3634e7:	8b 45 10             	mov    0x10(%ebp),%eax
  3634ea:	39 c2                	cmp    %eax,%edx
  3634ec:	0f 46 c2             	cmovbe %edx,%eax
  3634ef:	89 45 f0             	mov    %eax,-0x10(%ebp)
  3634f2:	8b 45 f0             	mov    -0x10(%ebp),%eax
  3634f5:	8b 15 d8 31 37 00    	mov    0x3731d8,%edx
  3634fb:	8b 0d dc 31 37 00    	mov    0x3731dc,%ecx
  363501:	01 ca                	add    %ecx,%edx
  363503:	50                   	push   %eax
  363504:	ff 75 0c             	pushl  0xc(%ebp)
  363507:	52                   	push   %edx
  363508:	e8 e5 fd ff ff       	call   3632f2 <memcpy>
  36350d:	83 c4 0c             	add    $0xc,%esp
  363510:	a1 dc 31 37 00       	mov    0x3731dc,%eax
  363515:	89 c2                	mov    %eax,%edx
  363517:	8b 45 f0             	mov    -0x10(%ebp),%eax
  36351a:	01 d0                	add    %edx,%eax
  36351c:	a3 dc 31 37 00       	mov    %eax,0x3731dc
  363521:	b8 02 00 00 00       	mov    $0x2,%eax
  363526:	8b 5d 08             	mov    0x8(%ebp),%ebx
  363529:	8b 4d f0             	mov    -0x10(%ebp),%ecx
  36352c:	ba 00 00 00 00       	mov    $0x0,%edx
  363531:	be 00 00 00 00       	mov    $0x0,%esi
  363536:	bf 00 00 00 00       	mov    $0x0,%edi
  36353b:	cd 80                	int    $0x80
  36353d:	89 45 ec             	mov    %eax,-0x14(%ebp)
  363540:	8d 65 f4             	lea    -0xc(%ebp),%esp
  363543:	5b                   	pop    %ebx
  363544:	5e                   	pop    %esi
  363545:	5f                   	pop    %edi
  363546:	5d                   	pop    %ebp
  363547:	c3                   	ret    

00363548 <ramdisk_open>:
  363548:	55                   	push   %ebp
  363549:	89 e5                	mov    %esp,%ebp
  36354b:	57                   	push   %edi
  36354c:	56                   	push   %esi
  36354d:	53                   	push   %ebx
  36354e:	83 ec 10             	sub    $0x10,%esp
  363551:	b8 02 00 00 00       	mov    $0x2,%eax
  363556:	8b 5d 08             	mov    0x8(%ebp),%ebx
  363559:	b9 08 00 00 00       	mov    $0x8,%ecx
  36355e:	ba 00 00 00 00       	mov    $0x0,%edx
  363563:	be 00 00 00 00       	mov    $0x0,%esi
  363568:	bf 00 00 00 00       	mov    $0x0,%edi
  36356d:	cd 80                	int    $0x80
  36356f:	89 45 f0             	mov    %eax,-0x10(%ebp)
  363572:	83 c4 10             	add    $0x10,%esp
  363575:	5b                   	pop    %ebx
  363576:	5e                   	pop    %esi
  363577:	5f                   	pop    %edi
  363578:	5d                   	pop    %ebp
  363579:	c3                   	ret    

0036357a <ramdisk_init>:
  36357a:	55                   	push   %ebp
  36357b:	89 e5                	mov    %esp,%ebp
  36357d:	57                   	push   %edi
  36357e:	56                   	push   %esi
  36357f:	53                   	push   %ebx
  363580:	83 ec 20             	sub    $0x20,%esp
  363583:	c7 05 d8 31 37 00 00 	movl   $0x200000,0x3731d8
  36358a:	00 20 00 
  36358d:	b8 03 00 00 00       	mov    $0x3,%eax
  363592:	bb 00 00 00 00       	mov    $0x0,%ebx
  363597:	b9 48 35 36 00       	mov    $0x363548,%ecx
  36359c:	ba 00 00 00 00       	mov    $0x0,%edx
  3635a1:	be 00 00 00 00       	mov    $0x0,%esi
  3635a6:	bf 00 00 00 00       	mov    $0x0,%edi
  3635ab:	cd 80                	int    $0x80
  3635ad:	89 45 f0             	mov    %eax,-0x10(%ebp)
  3635b0:	b8 03 00 00 00       	mov    $0x3,%eax
  3635b5:	bb 05 00 00 00       	mov    $0x5,%ebx
  3635ba:	b9 56 34 36 00       	mov    $0x363456,%ecx
  3635bf:	ba 00 00 00 00       	mov    $0x0,%edx
  3635c4:	be 00 00 00 00       	mov    $0x0,%esi
  3635c9:	bf 00 00 00 00       	mov    $0x0,%edi
  3635ce:	cd 80                	int    $0x80
  3635d0:	89 45 ec             	mov    %eax,-0x14(%ebp)
  3635d3:	b8 03 00 00 00       	mov    $0x3,%eax
  3635d8:	bb 06 00 00 00       	mov    $0x6,%ebx
  3635dd:	b9 cf 34 36 00       	mov    $0x3634cf,%ecx
  3635e2:	ba 00 00 00 00       	mov    $0x0,%edx
  3635e7:	be 00 00 00 00       	mov    $0x0,%esi
  3635ec:	bf 00 00 00 00       	mov    $0x0,%edi
  3635f1:	cd 80                	int    $0x80
  3635f3:	89 45 e8             	mov    %eax,-0x18(%ebp)
  3635f6:	b8 03 00 00 00       	mov    $0x3,%eax
  3635fb:	bb 07 00 00 00       	mov    $0x7,%ebx
  363600:	b9 12 33 36 00       	mov    $0x363312,%ecx
  363605:	ba 00 00 00 00       	mov    $0x0,%edx
  36360a:	be 00 00 00 00       	mov    $0x0,%esi
  36360f:	bf 00 00 00 00       	mov    $0x0,%edi
  363614:	cd 80                	int    $0x80
  363616:	89 45 e4             	mov    %eax,-0x1c(%ebp)
  363619:	b8 03 00 00 00       	mov    $0x3,%eax
  36361e:	bb 08 00 00 00       	mov    $0x8,%ebx
  363623:	b9 b4 33 36 00       	mov    $0x3633b4,%ecx
  363628:	ba 00 00 00 00       	mov    $0x0,%edx
  36362d:	be 00 00 00 00       	mov    $0x0,%esi
  363632:	bf 00 00 00 00       	mov    $0x0,%edi
  363637:	cd 80                	int    $0x80
  363639:	89 45 e0             	mov    %eax,-0x20(%ebp)
  36363c:	83 c4 20             	add    $0x20,%esp
  36363f:	5b                   	pop    %ebx
  363640:	5e                   	pop    %esi
  363641:	5f                   	pop    %edi
  363642:	5d                   	pop    %ebp
  363643:	c3                   	ret    

00363644 <ramdisk_main>:
  363644:	55                   	push   %ebp
  363645:	89 e5                	mov    %esp,%ebp
  363647:	57                   	push   %edi
  363648:	56                   	push   %esi
  363649:	53                   	push   %ebx
  36364a:	83 ec 10             	sub    $0x10,%esp
  36364d:	e8 28 ff ff ff       	call   36357a <ramdisk_init>
  363652:	b8 00 00 00 00       	mov    $0x0,%eax
  363657:	bb 00 00 00 00       	mov    $0x0,%ebx
  36365c:	b9 00 00 00 00       	mov    $0x0,%ecx
  363661:	ba 00 00 00 00       	mov    $0x0,%edx
  363666:	be 00 00 00 00       	mov    $0x0,%esi
  36366b:	bf 00 00 00 00       	mov    $0x0,%edi
  363670:	cd 80                	int    $0x80
  363672:	89 45 f0             	mov    %eax,-0x10(%ebp)
  363675:	b8 00 00 00 00       	mov    $0x0,%eax
  36367a:	83 c4 10             	add    $0x10,%esp
  36367d:	5b                   	pop    %ebx
  36367e:	5e                   	pop    %esi
  36367f:	5f                   	pop    %edi
  363680:	5d                   	pop    %ebp
  363681:	c3                   	ret    

00363682 <outb>:
  363682:	55                   	push   %ebp
  363683:	89 e5                	mov    %esp,%ebp
  363685:	83 ec 08             	sub    $0x8,%esp
  363688:	8b 55 08             	mov    0x8(%ebp),%edx
  36368b:	8b 45 0c             	mov    0xc(%ebp),%eax
  36368e:	88 55 fc             	mov    %dl,-0x4(%ebp)
  363691:	66 89 45 f8          	mov    %ax,-0x8(%ebp)
  363695:	0f b6 45 fc          	movzbl -0x4(%ebp),%eax
  363699:	0f b7 55 f8          	movzwl -0x8(%ebp),%edx
  36369d:	ee                   	out    %al,(%dx)
  36369e:	c9                   	leave  
  36369f:	c3                   	ret    

003636a0 <inb>:
  3636a0:	55                   	push   %ebp
  3636a1:	89 e5                	mov    %esp,%ebp
  3636a3:	83 ec 14             	sub    $0x14,%esp
  3636a6:	8b 45 08             	mov    0x8(%ebp),%eax
  3636a9:	66 89 45 ec          	mov    %ax,-0x14(%ebp)
  3636ad:	0f b7 45 ec          	movzwl -0x14(%ebp),%eax
  3636b1:	89 c2                	mov    %eax,%edx
  3636b3:	ec                   	in     (%dx),%al
  3636b4:	88 45 ff             	mov    %al,-0x1(%ebp)
  3636b7:	0f b6 45 ff          	movzbl -0x1(%ebp),%eax
  3636bb:	c9                   	leave  
  3636bc:	c3                   	ret    

003636bd <io_delay>:
  3636bd:	55                   	push   %ebp
  3636be:	89 e5                	mov    %esp,%ebp
  3636c0:	83 ec 10             	sub    $0x10,%esp
  3636c3:	66 c7 45 fe 80 00    	movw   $0x80,-0x2(%ebp)
  3636c9:	0f b7 45 fe          	movzwl -0x2(%ebp),%eax
  3636cd:	89 c2                	mov    %eax,%edx
  3636cf:	ee                   	out    %al,(%dx)
  3636d0:	c9                   	leave  
  3636d1:	c3                   	ret    

003636d2 <outb_p>:
  3636d2:	55                   	push   %ebp
  3636d3:	89 e5                	mov    %esp,%ebp
  3636d5:	83 ec 08             	sub    $0x8,%esp
  3636d8:	8b 55 08             	mov    0x8(%ebp),%edx
  3636db:	8b 45 0c             	mov    0xc(%ebp),%eax
  3636de:	88 55 fc             	mov    %dl,-0x4(%ebp)
  3636e1:	66 89 45 f8          	mov    %ax,-0x8(%ebp)
  3636e5:	0f b7 55 f8          	movzwl -0x8(%ebp),%edx
  3636e9:	0f b6 45 fc          	movzbl -0x4(%ebp),%eax
  3636ed:	52                   	push   %edx
  3636ee:	50                   	push   %eax
  3636ef:	e8 8e ff ff ff       	call   363682 <outb>
  3636f4:	83 c4 08             	add    $0x8,%esp
  3636f7:	e8 c1 ff ff ff       	call   3636bd <io_delay>
  3636fc:	c9                   	leave  
  3636fd:	c3                   	ret    

003636fe <inb_p>:
  3636fe:	55                   	push   %ebp
  3636ff:	89 e5                	mov    %esp,%ebp
  363701:	83 ec 14             	sub    $0x14,%esp
  363704:	8b 45 08             	mov    0x8(%ebp),%eax
  363707:	66 89 45 ec          	mov    %ax,-0x14(%ebp)
  36370b:	0f b7 45 ec          	movzwl -0x14(%ebp),%eax
  36370f:	50                   	push   %eax
  363710:	e8 8b ff ff ff       	call   3636a0 <inb>
  363715:	83 c4 04             	add    $0x4,%esp
  363718:	88 45 ff             	mov    %al,-0x1(%ebp)
  36371b:	e8 9d ff ff ff       	call   3636bd <io_delay>
  363720:	0f b6 45 ff          	movzbl -0x1(%ebp),%eax
  363724:	c9                   	leave  
  363725:	c3                   	ret    

00363726 <set_top>:
  363726:	55                   	push   %ebp
  363727:	89 e5                	mov    %esp,%ebp
  363729:	a1 f4 31 37 00       	mov    0x3731f4,%eax
  36372e:	39 45 08             	cmp    %eax,0x8(%ebp)
  363731:	74 05                	je     363738 <set_top+0x12>
  363733:	e9 89 00 00 00       	jmp    3637c1 <set_top+0x9b>
  363738:	68 d4 03 00 00       	push   $0x3d4
  36373d:	6a 0c                	push   $0xc
  36373f:	e8 8e ff ff ff       	call   3636d2 <outb_p>
  363744:	83 c4 08             	add    $0x8,%esp
  363747:	8b 45 08             	mov    0x8(%ebp),%eax
  36374a:	c1 e0 02             	shl    $0x2,%eax
  36374d:	8d 14 c5 00 00 00 00 	lea    0x0(,%eax,8),%edx
  363754:	29 c2                	sub    %eax,%edx
  363756:	89 d0                	mov    %edx,%eax
  363758:	05 84 3c 37 00       	add    $0x373c84,%eax
  36375d:	8b 50 0c             	mov    0xc(%eax),%edx
  363760:	a1 e4 31 37 00       	mov    0x3731e4,%eax
  363765:	29 c2                	sub    %eax,%edx
  363767:	89 d0                	mov    %edx,%eax
  363769:	c1 e8 09             	shr    $0x9,%eax
  36376c:	0f b6 c0             	movzbl %al,%eax
  36376f:	68 d5 03 00 00       	push   $0x3d5
  363774:	50                   	push   %eax
  363775:	e8 58 ff ff ff       	call   3636d2 <outb_p>
  36377a:	83 c4 08             	add    $0x8,%esp
  36377d:	68 d4 03 00 00       	push   $0x3d4
  363782:	6a 0d                	push   $0xd
  363784:	e8 49 ff ff ff       	call   3636d2 <outb_p>
  363789:	83 c4 08             	add    $0x8,%esp
  36378c:	8b 45 08             	mov    0x8(%ebp),%eax
  36378f:	c1 e0 02             	shl    $0x2,%eax
  363792:	8d 14 c5 00 00 00 00 	lea    0x0(,%eax,8),%edx
  363799:	29 c2                	sub    %eax,%edx
  36379b:	89 d0                	mov    %edx,%eax
  36379d:	05 84 3c 37 00       	add    $0x373c84,%eax
  3637a2:	8b 50 0c             	mov    0xc(%eax),%edx
  3637a5:	a1 e4 31 37 00       	mov    0x3731e4,%eax
  3637aa:	29 c2                	sub    %eax,%edx
  3637ac:	89 d0                	mov    %edx,%eax
  3637ae:	d1 e8                	shr    %eax
  3637b0:	0f b6 c0             	movzbl %al,%eax
  3637b3:	68 d5 03 00 00       	push   $0x3d5
  3637b8:	50                   	push   %eax
  3637b9:	e8 14 ff ff ff       	call   3636d2 <outb_p>
  3637be:	83 c4 08             	add    $0x8,%esp
  3637c1:	c9                   	leave  
  3637c2:	c3                   	ret    

003637c3 <set_cur>:
  3637c3:	55                   	push   %ebp
  3637c4:	89 e5                	mov    %esp,%ebp
  3637c6:	a1 f4 31 37 00       	mov    0x3731f4,%eax
  3637cb:	39 45 08             	cmp    %eax,0x8(%ebp)
  3637ce:	74 05                	je     3637d5 <set_cur+0x12>
  3637d0:	e9 89 00 00 00       	jmp    36385e <set_cur+0x9b>
  3637d5:	68 d4 03 00 00       	push   $0x3d4
  3637da:	6a 0e                	push   $0xe
  3637dc:	e8 f1 fe ff ff       	call   3636d2 <outb_p>
  3637e1:	83 c4 08             	add    $0x8,%esp
  3637e4:	8b 45 08             	mov    0x8(%ebp),%eax
  3637e7:	c1 e0 02             	shl    $0x2,%eax
  3637ea:	8d 14 c5 00 00 00 00 	lea    0x0(,%eax,8),%edx
  3637f1:	29 c2                	sub    %eax,%edx
  3637f3:	89 d0                	mov    %edx,%eax
  3637f5:	05 94 3c 37 00       	add    $0x373c94,%eax
  3637fa:	8b 50 04             	mov    0x4(%eax),%edx
  3637fd:	a1 e4 31 37 00       	mov    0x3731e4,%eax
  363802:	29 c2                	sub    %eax,%edx
  363804:	89 d0                	mov    %edx,%eax
  363806:	c1 e8 09             	shr    $0x9,%eax
  363809:	0f b6 c0             	movzbl %al,%eax
  36380c:	68 d5 03 00 00       	push   $0x3d5
  363811:	50                   	push   %eax
  363812:	e8 bb fe ff ff       	call   3636d2 <outb_p>
  363817:	83 c4 08             	add    $0x8,%esp
  36381a:	68 d4 03 00 00       	push   $0x3d4
  36381f:	6a 0f                	push   $0xf
  363821:	e8 ac fe ff ff       	call   3636d2 <outb_p>
  363826:	83 c4 08             	add    $0x8,%esp
  363829:	8b 45 08             	mov    0x8(%ebp),%eax
  36382c:	c1 e0 02             	shl    $0x2,%eax
  36382f:	8d 14 c5 00 00 00 00 	lea    0x0(,%eax,8),%edx
  363836:	29 c2                	sub    %eax,%edx
  363838:	89 d0                	mov    %edx,%eax
  36383a:	05 94 3c 37 00       	add    $0x373c94,%eax
  36383f:	8b 50 04             	mov    0x4(%eax),%edx
  363842:	a1 e4 31 37 00       	mov    0x3731e4,%eax
  363847:	29 c2                	sub    %eax,%edx
  363849:	89 d0                	mov    %edx,%eax
  36384b:	d1 e8                	shr    %eax
  36384d:	0f b6 c0             	movzbl %al,%eax
  363850:	68 d5 03 00 00       	push   $0x3d5
  363855:	50                   	push   %eax
  363856:	e8 77 fe ff ff       	call   3636d2 <outb_p>
  36385b:	83 c4 08             	add    $0x8,%esp
  36385e:	c9                   	leave  
  36385f:	c3                   	ret    

00363860 <scrup>:
  363860:	55                   	push   %ebp
  363861:	89 e5                	mov    %esp,%ebp
  363863:	8b 45 08             	mov    0x8(%ebp),%eax
  363866:	c1 e0 02             	shl    $0x2,%eax
  363869:	8d 14 c5 00 00 00 00 	lea    0x0(,%eax,8),%edx
  363870:	29 c2                	sub    %eax,%edx
  363872:	89 d0                	mov    %edx,%eax
  363874:	05 94 3c 37 00       	add    $0x373c94,%eax
  363879:	8b 10                	mov    (%eax),%edx
  36387b:	8b 45 08             	mov    0x8(%ebp),%eax
  36387e:	c1 e0 02             	shl    $0x2,%eax
  363881:	8d 0c c5 00 00 00 00 	lea    0x0(,%eax,8),%ecx
  363888:	29 c1                	sub    %eax,%ecx
  36388a:	89 c8                	mov    %ecx,%eax
  36388c:	05 94 3c 37 00       	add    $0x373c94,%eax
  363891:	8b 40 04             	mov    0x4(%eax),%eax
  363894:	39 c2                	cmp    %eax,%edx
  363896:	76 02                	jbe    36389a <scrup+0x3a>
  363898:	eb 7b                	jmp    363915 <scrup+0xb5>
  36389a:	8b 45 08             	mov    0x8(%ebp),%eax
  36389d:	c1 e0 02             	shl    $0x2,%eax
  3638a0:	8d 14 c5 00 00 00 00 	lea    0x0(,%eax,8),%edx
  3638a7:	29 c2                	sub    %eax,%edx
  3638a9:	89 d0                	mov    %edx,%eax
  3638ab:	05 84 3c 37 00       	add    $0x373c84,%eax
  3638b0:	8b 50 0c             	mov    0xc(%eax),%edx
  3638b3:	a1 f0 31 37 00       	mov    0x3731f0,%eax
  3638b8:	01 c2                	add    %eax,%edx
  3638ba:	8b 45 08             	mov    0x8(%ebp),%eax
  3638bd:	c1 e0 02             	shl    $0x2,%eax
  3638c0:	8d 0c c5 00 00 00 00 	lea    0x0(,%eax,8),%ecx
  3638c7:	29 c1                	sub    %eax,%ecx
  3638c9:	89 c8                	mov    %ecx,%eax
  3638cb:	05 84 3c 37 00       	add    $0x373c84,%eax
  3638d0:	89 50 0c             	mov    %edx,0xc(%eax)
  3638d3:	8b 45 08             	mov    0x8(%ebp),%eax
  3638d6:	c1 e0 02             	shl    $0x2,%eax
  3638d9:	8d 14 c5 00 00 00 00 	lea    0x0(,%eax,8),%edx
  3638e0:	29 c2                	sub    %eax,%edx
  3638e2:	89 d0                	mov    %edx,%eax
  3638e4:	05 94 3c 37 00       	add    $0x373c94,%eax
  3638e9:	8b 10                	mov    (%eax),%edx
  3638eb:	a1 f0 31 37 00       	mov    0x3731f0,%eax
  3638f0:	01 c2                	add    %eax,%edx
  3638f2:	8b 45 08             	mov    0x8(%ebp),%eax
  3638f5:	c1 e0 02             	shl    $0x2,%eax
  3638f8:	8d 0c c5 00 00 00 00 	lea    0x0(,%eax,8),%ecx
  3638ff:	29 c1                	sub    %eax,%ecx
  363901:	89 c8                	mov    %ecx,%eax
  363903:	05 94 3c 37 00       	add    $0x373c94,%eax
  363908:	89 10                	mov    %edx,(%eax)
  36390a:	ff 75 08             	pushl  0x8(%ebp)
  36390d:	e8 14 fe ff ff       	call   363726 <set_top>
  363912:	83 c4 04             	add    $0x4,%esp
  363915:	c9                   	leave  
  363916:	c3                   	ret    

00363917 <scrtop>:
  363917:	55                   	push   %ebp
  363918:	89 e5                	mov    %esp,%ebp
  36391a:	57                   	push   %edi
  36391b:	56                   	push   %esi
  36391c:	53                   	push   %ebx
  36391d:	8b 45 08             	mov    0x8(%ebp),%eax
  363920:	c1 e0 02             	shl    $0x2,%eax
  363923:	8d 14 c5 00 00 00 00 	lea    0x0(,%eax,8),%edx
  36392a:	29 c2                	sub    %eax,%edx
  36392c:	89 d0                	mov    %edx,%eax
  36392e:	05 94 3c 37 00       	add    $0x373c94,%eax
  363933:	8b 10                	mov    (%eax),%edx
  363935:	8b 45 08             	mov    0x8(%ebp),%eax
  363938:	c1 e0 02             	shl    $0x2,%eax
  36393b:	8d 0c c5 00 00 00 00 	lea    0x0(,%eax,8),%ecx
  363942:	29 c1                	sub    %eax,%ecx
  363944:	89 c8                	mov    %ecx,%eax
  363946:	05 84 3c 37 00       	add    $0x373c84,%eax
  36394b:	8b 40 08             	mov    0x8(%eax),%eax
  36394e:	39 c2                	cmp    %eax,%edx
  363950:	0f 86 79 01 00 00    	jbe    363acf <scrtop+0x1b8>
  363956:	a1 ec 31 37 00       	mov    0x3731ec,%eax
  36395b:	8d 50 ff             	lea    -0x1(%eax),%edx
  36395e:	a1 f0 31 37 00       	mov    0x3731f0,%eax
  363963:	0f af c2             	imul   %edx,%eax
  363966:	c1 e8 02             	shr    $0x2,%eax
  363969:	89 c1                	mov    %eax,%ecx
  36396b:	8b 45 08             	mov    0x8(%ebp),%eax
  36396e:	c1 e0 02             	shl    $0x2,%eax
  363971:	8d 14 c5 00 00 00 00 	lea    0x0(,%eax,8),%edx
  363978:	29 c2                	sub    %eax,%edx
  36397a:	89 d0                	mov    %edx,%eax
  36397c:	05 84 3c 37 00       	add    $0x373c84,%eax
  363981:	8b 50 04             	mov    0x4(%eax),%edx
  363984:	8b 45 08             	mov    0x8(%ebp),%eax
  363987:	c1 e0 02             	shl    $0x2,%eax
  36398a:	8d 1c c5 00 00 00 00 	lea    0x0(,%eax,8),%ebx
  363991:	29 c3                	sub    %eax,%ebx
  363993:	89 d8                	mov    %ebx,%eax
  363995:	05 84 3c 37 00       	add    $0x373c84,%eax
  36399a:	8b 58 0c             	mov    0xc(%eax),%ebx
  36399d:	8b 45 08             	mov    0x8(%ebp),%eax
  3639a0:	c1 e0 02             	shl    $0x2,%eax
  3639a3:	8d 34 c5 00 00 00 00 	lea    0x0(,%eax,8),%esi
  3639aa:	29 c6                	sub    %eax,%esi
  3639ac:	89 f0                	mov    %esi,%eax
  3639ae:	05 84 3c 37 00       	add    $0x373c84,%eax
  3639b3:	0f b7 40 02          	movzwl 0x2(%eax),%eax
  3639b7:	89 d7                	mov    %edx,%edi
  3639b9:	89 de                	mov    %ebx,%esi
  3639bb:	f3 a5                	rep movsl %ds:(%esi),%es:(%edi)
  3639bd:	8b 0d e8 31 37 00    	mov    0x3731e8,%ecx
  3639c3:	66 f3 ab             	rep stos %ax,%es:(%edi)
  3639c6:	8b 45 08             	mov    0x8(%ebp),%eax
  3639c9:	c1 e0 02             	shl    $0x2,%eax
  3639cc:	8d 14 c5 00 00 00 00 	lea    0x0(,%eax,8),%edx
  3639d3:	29 c2                	sub    %eax,%edx
  3639d5:	89 d0                	mov    %edx,%eax
  3639d7:	05 94 3c 37 00       	add    $0x373c94,%eax
  3639dc:	8b 10                	mov    (%eax),%edx
  3639de:	8b 45 08             	mov    0x8(%ebp),%eax
  3639e1:	c1 e0 02             	shl    $0x2,%eax
  3639e4:	8d 0c c5 00 00 00 00 	lea    0x0(,%eax,8),%ecx
  3639eb:	29 c1                	sub    %eax,%ecx
  3639ed:	89 c8                	mov    %ecx,%eax
  3639ef:	05 84 3c 37 00       	add    $0x373c84,%eax
  3639f4:	8b 48 04             	mov    0x4(%eax),%ecx
  3639f7:	8b 45 08             	mov    0x8(%ebp),%eax
  3639fa:	c1 e0 02             	shl    $0x2,%eax
  3639fd:	8d 1c c5 00 00 00 00 	lea    0x0(,%eax,8),%ebx
  363a04:	29 c3                	sub    %eax,%ebx
  363a06:	89 d8                	mov    %ebx,%eax
  363a08:	05 84 3c 37 00       	add    $0x373c84,%eax
  363a0d:	8b 40 0c             	mov    0xc(%eax),%eax
  363a10:	29 c1                	sub    %eax,%ecx
  363a12:	89 c8                	mov    %ecx,%eax
  363a14:	01 c2                	add    %eax,%edx
  363a16:	8b 45 08             	mov    0x8(%ebp),%eax
  363a19:	c1 e0 02             	shl    $0x2,%eax
  363a1c:	8d 0c c5 00 00 00 00 	lea    0x0(,%eax,8),%ecx
  363a23:	29 c1                	sub    %eax,%ecx
  363a25:	89 c8                	mov    %ecx,%eax
  363a27:	05 94 3c 37 00       	add    $0x373c94,%eax
  363a2c:	89 10                	mov    %edx,(%eax)
  363a2e:	8b 45 08             	mov    0x8(%ebp),%eax
  363a31:	c1 e0 02             	shl    $0x2,%eax
  363a34:	8d 14 c5 00 00 00 00 	lea    0x0(,%eax,8),%edx
  363a3b:	29 c2                	sub    %eax,%edx
  363a3d:	89 d0                	mov    %edx,%eax
  363a3f:	05 94 3c 37 00       	add    $0x373c94,%eax
  363a44:	8b 50 04             	mov    0x4(%eax),%edx
  363a47:	8b 45 08             	mov    0x8(%ebp),%eax
  363a4a:	c1 e0 02             	shl    $0x2,%eax
  363a4d:	8d 0c c5 00 00 00 00 	lea    0x0(,%eax,8),%ecx
  363a54:	29 c1                	sub    %eax,%ecx
  363a56:	89 c8                	mov    %ecx,%eax
  363a58:	05 84 3c 37 00       	add    $0x373c84,%eax
  363a5d:	8b 48 04             	mov    0x4(%eax),%ecx
  363a60:	8b 45 08             	mov    0x8(%ebp),%eax
  363a63:	c1 e0 02             	shl    $0x2,%eax
  363a66:	8d 1c c5 00 00 00 00 	lea    0x0(,%eax,8),%ebx
  363a6d:	29 c3                	sub    %eax,%ebx
  363a6f:	89 d8                	mov    %ebx,%eax
  363a71:	05 84 3c 37 00       	add    $0x373c84,%eax
  363a76:	8b 40 0c             	mov    0xc(%eax),%eax
  363a79:	29 c1                	sub    %eax,%ecx
  363a7b:	89 c8                	mov    %ecx,%eax
  363a7d:	01 c2                	add    %eax,%edx
  363a7f:	8b 45 08             	mov    0x8(%ebp),%eax
  363a82:	c1 e0 02             	shl    $0x2,%eax
  363a85:	8d 0c c5 00 00 00 00 	lea    0x0(,%eax,8),%ecx
  363a8c:	29 c1                	sub    %eax,%ecx
  363a8e:	89 c8                	mov    %ecx,%eax
  363a90:	05 94 3c 37 00       	add    $0x373c94,%eax
  363a95:	89 50 04             	mov    %edx,0x4(%eax)
  363a98:	8b 45 08             	mov    0x8(%ebp),%eax
  363a9b:	c1 e0 02             	shl    $0x2,%eax
  363a9e:	8d 14 c5 00 00 00 00 	lea    0x0(,%eax,8),%edx
  363aa5:	29 c2                	sub    %eax,%edx
  363aa7:	89 d0                	mov    %edx,%eax
  363aa9:	05 84 3c 37 00       	add    $0x373c84,%eax
  363aae:	8b 50 04             	mov    0x4(%eax),%edx
  363ab1:	8b 45 08             	mov    0x8(%ebp),%eax
  363ab4:	c1 e0 02             	shl    $0x2,%eax
  363ab7:	8d 0c c5 00 00 00 00 	lea    0x0(,%eax,8),%ecx
  363abe:	29 c1                	sub    %eax,%ecx
  363ac0:	89 c8                	mov    %ecx,%eax
  363ac2:	05 84 3c 37 00       	add    $0x373c84,%eax
  363ac7:	89 50 0c             	mov    %edx,0xc(%eax)
  363aca:	e9 ad 00 00 00       	jmp    363b7c <scrtop+0x265>
  363acf:	8b 45 08             	mov    0x8(%ebp),%eax
  363ad2:	c1 e0 02             	shl    $0x2,%eax
  363ad5:	8d 14 c5 00 00 00 00 	lea    0x0(,%eax,8),%edx
  363adc:	29 c2                	sub    %eax,%edx
  363ade:	89 d0                	mov    %edx,%eax
  363ae0:	05 94 3c 37 00       	add    $0x373c94,%eax
  363ae5:	8b 10                	mov    (%eax),%edx
  363ae7:	8b 0d e8 31 37 00    	mov    0x3731e8,%ecx
  363aed:	8b 45 08             	mov    0x8(%ebp),%eax
  363af0:	c1 e0 02             	shl    $0x2,%eax
  363af3:	8d 1c c5 00 00 00 00 	lea    0x0(,%eax,8),%ebx
  363afa:	29 c3                	sub    %eax,%ebx
  363afc:	89 d8                	mov    %ebx,%eax
  363afe:	05 84 3c 37 00       	add    $0x373c84,%eax
  363b03:	0f b7 40 02          	movzwl 0x2(%eax),%eax
  363b07:	89 d7                	mov    %edx,%edi
  363b09:	66 f3 ab             	rep stos %ax,%es:(%edi)
  363b0c:	8b 45 08             	mov    0x8(%ebp),%eax
  363b0f:	c1 e0 02             	shl    $0x2,%eax
  363b12:	8d 14 c5 00 00 00 00 	lea    0x0(,%eax,8),%edx
  363b19:	29 c2                	sub    %eax,%edx
  363b1b:	89 d0                	mov    %edx,%eax
  363b1d:	05 84 3c 37 00       	add    $0x373c84,%eax
  363b22:	8b 50 0c             	mov    0xc(%eax),%edx
  363b25:	a1 f0 31 37 00       	mov    0x3731f0,%eax
  363b2a:	01 c2                	add    %eax,%edx
  363b2c:	8b 45 08             	mov    0x8(%ebp),%eax
  363b2f:	c1 e0 02             	shl    $0x2,%eax
  363b32:	8d 0c c5 00 00 00 00 	lea    0x0(,%eax,8),%ecx
  363b39:	29 c1                	sub    %eax,%ecx
  363b3b:	89 c8                	mov    %ecx,%eax
  363b3d:	05 84 3c 37 00       	add    $0x373c84,%eax
  363b42:	89 50 0c             	mov    %edx,0xc(%eax)
  363b45:	8b 45 08             	mov    0x8(%ebp),%eax
  363b48:	c1 e0 02             	shl    $0x2,%eax
  363b4b:	8d 14 c5 00 00 00 00 	lea    0x0(,%eax,8),%edx
  363b52:	29 c2                	sub    %eax,%edx
  363b54:	89 d0                	mov    %edx,%eax
  363b56:	05 94 3c 37 00       	add    $0x373c94,%eax
  363b5b:	8b 10                	mov    (%eax),%edx
  363b5d:	a1 f0 31 37 00       	mov    0x3731f0,%eax
  363b62:	01 c2                	add    %eax,%edx
  363b64:	8b 45 08             	mov    0x8(%ebp),%eax
  363b67:	c1 e0 02             	shl    $0x2,%eax
  363b6a:	8d 0c c5 00 00 00 00 	lea    0x0(,%eax,8),%ecx
  363b71:	29 c1                	sub    %eax,%ecx
  363b73:	89 c8                	mov    %ecx,%eax
  363b75:	05 94 3c 37 00       	add    $0x373c94,%eax
  363b7a:	89 10                	mov    %edx,(%eax)
  363b7c:	ff 75 08             	pushl  0x8(%ebp)
  363b7f:	e8 a2 fb ff ff       	call   363726 <set_top>
  363b84:	83 c4 04             	add    $0x4,%esp
  363b87:	8d 65 f4             	lea    -0xc(%ebp),%esp
  363b8a:	5b                   	pop    %ebx
  363b8b:	5e                   	pop    %esi
  363b8c:	5f                   	pop    %edi
  363b8d:	5d                   	pop    %ebp
  363b8e:	c3                   	ret    

00363b8f <scrdown>:
  363b8f:	55                   	push   %ebp
  363b90:	89 e5                	mov    %esp,%ebp
  363b92:	8b 45 08             	mov    0x8(%ebp),%eax
  363b95:	c1 e0 02             	shl    $0x2,%eax
  363b98:	8d 14 c5 00 00 00 00 	lea    0x0(,%eax,8),%edx
  363b9f:	29 c2                	sub    %eax,%edx
  363ba1:	89 d0                	mov    %edx,%eax
  363ba3:	05 84 3c 37 00       	add    $0x373c84,%eax
  363ba8:	8b 50 0c             	mov    0xc(%eax),%edx
  363bab:	a1 f0 31 37 00       	mov    0x3731f0,%eax
  363bb0:	89 d1                	mov    %edx,%ecx
  363bb2:	29 c1                	sub    %eax,%ecx
  363bb4:	8b 45 08             	mov    0x8(%ebp),%eax
  363bb7:	c1 e0 02             	shl    $0x2,%eax
  363bba:	8d 14 c5 00 00 00 00 	lea    0x0(,%eax,8),%edx
  363bc1:	29 c2                	sub    %eax,%edx
  363bc3:	89 d0                	mov    %edx,%eax
  363bc5:	05 84 3c 37 00       	add    $0x373c84,%eax
  363bca:	8b 40 04             	mov    0x4(%eax),%eax
  363bcd:	39 c1                	cmp    %eax,%ecx
  363bcf:	77 02                	ja     363bd3 <scrdown+0x44>
  363bd1:	eb 7b                	jmp    363c4e <scrdown+0xbf>
  363bd3:	8b 45 08             	mov    0x8(%ebp),%eax
  363bd6:	c1 e0 02             	shl    $0x2,%eax
  363bd9:	8d 14 c5 00 00 00 00 	lea    0x0(,%eax,8),%edx
  363be0:	29 c2                	sub    %eax,%edx
  363be2:	89 d0                	mov    %edx,%eax
  363be4:	05 84 3c 37 00       	add    $0x373c84,%eax
  363be9:	8b 50 0c             	mov    0xc(%eax),%edx
  363bec:	a1 f0 31 37 00       	mov    0x3731f0,%eax
  363bf1:	29 c2                	sub    %eax,%edx
  363bf3:	8b 45 08             	mov    0x8(%ebp),%eax
  363bf6:	c1 e0 02             	shl    $0x2,%eax
  363bf9:	8d 0c c5 00 00 00 00 	lea    0x0(,%eax,8),%ecx
  363c00:	29 c1                	sub    %eax,%ecx
  363c02:	89 c8                	mov    %ecx,%eax
  363c04:	05 84 3c 37 00       	add    $0x373c84,%eax
  363c09:	89 50 0c             	mov    %edx,0xc(%eax)
  363c0c:	8b 45 08             	mov    0x8(%ebp),%eax
  363c0f:	c1 e0 02             	shl    $0x2,%eax
  363c12:	8d 14 c5 00 00 00 00 	lea    0x0(,%eax,8),%edx
  363c19:	29 c2                	sub    %eax,%edx
  363c1b:	89 d0                	mov    %edx,%eax
  363c1d:	05 94 3c 37 00       	add    $0x373c94,%eax
  363c22:	8b 10                	mov    (%eax),%edx
  363c24:	a1 f0 31 37 00       	mov    0x3731f0,%eax
  363c29:	29 c2                	sub    %eax,%edx
  363c2b:	8b 45 08             	mov    0x8(%ebp),%eax
  363c2e:	c1 e0 02             	shl    $0x2,%eax
  363c31:	8d 0c c5 00 00 00 00 	lea    0x0(,%eax,8),%ecx
  363c38:	29 c1                	sub    %eax,%ecx
  363c3a:	89 c8                	mov    %ecx,%eax
  363c3c:	05 94 3c 37 00       	add    $0x373c94,%eax
  363c41:	89 10                	mov    %edx,(%eax)
  363c43:	ff 75 08             	pushl  0x8(%ebp)
  363c46:	e8 db fa ff ff       	call   363726 <set_top>
  363c4b:	83 c4 04             	add    $0x4,%esp
  363c4e:	c9                   	leave  
  363c4f:	c3                   	ret    

00363c50 <lf>:
  363c50:	55                   	push   %ebp
  363c51:	89 e5                	mov    %esp,%ebp
  363c53:	8b 45 08             	mov    0x8(%ebp),%eax
  363c56:	c1 e0 02             	shl    $0x2,%eax
  363c59:	8d 14 c5 00 00 00 00 	lea    0x0(,%eax,8),%edx
  363c60:	29 c2                	sub    %eax,%edx
  363c62:	89 d0                	mov    %edx,%eax
  363c64:	05 94 3c 37 00       	add    $0x373c94,%eax
  363c69:	8b 50 04             	mov    0x4(%eax),%edx
  363c6c:	a1 f0 31 37 00       	mov    0x3731f0,%eax
  363c71:	8d 0c 02             	lea    (%edx,%eax,1),%ecx
  363c74:	8b 45 08             	mov    0x8(%ebp),%eax
  363c77:	c1 e0 02             	shl    $0x2,%eax
  363c7a:	8d 14 c5 00 00 00 00 	lea    0x0(,%eax,8),%edx
  363c81:	29 c2                	sub    %eax,%edx
  363c83:	89 d0                	mov    %edx,%eax
  363c85:	05 94 3c 37 00       	add    $0x373c94,%eax
  363c8a:	8b 00                	mov    (%eax),%eax
  363c8c:	39 c1                	cmp    %eax,%ecx
  363c8e:	76 0b                	jbe    363c9b <lf+0x4b>
  363c90:	ff 75 08             	pushl  0x8(%ebp)
  363c93:	e8 7f fc ff ff       	call   363917 <scrtop>
  363c98:	83 c4 04             	add    $0x4,%esp
  363c9b:	8b 45 08             	mov    0x8(%ebp),%eax
  363c9e:	c1 e0 02             	shl    $0x2,%eax
  363ca1:	8d 14 c5 00 00 00 00 	lea    0x0(,%eax,8),%edx
  363ca8:	29 c2                	sub    %eax,%edx
  363caa:	89 d0                	mov    %edx,%eax
  363cac:	05 94 3c 37 00       	add    $0x373c94,%eax
  363cb1:	8b 50 04             	mov    0x4(%eax),%edx
  363cb4:	a1 f0 31 37 00       	mov    0x3731f0,%eax
  363cb9:	01 c2                	add    %eax,%edx
  363cbb:	8b 45 08             	mov    0x8(%ebp),%eax
  363cbe:	c1 e0 02             	shl    $0x2,%eax
  363cc1:	8d 0c c5 00 00 00 00 	lea    0x0(,%eax,8),%ecx
  363cc8:	29 c1                	sub    %eax,%ecx
  363cca:	89 c8                	mov    %ecx,%eax
  363ccc:	05 94 3c 37 00       	add    $0x373c94,%eax
  363cd1:	89 50 04             	mov    %edx,0x4(%eax)
  363cd4:	ff 75 08             	pushl  0x8(%ebp)
  363cd7:	e8 e7 fa ff ff       	call   3637c3 <set_cur>
  363cdc:	83 c4 04             	add    $0x4,%esp
  363cdf:	c9                   	leave  
  363ce0:	c3                   	ret    

00363ce1 <cr>:
  363ce1:	55                   	push   %ebp
  363ce2:	89 e5                	mov    %esp,%ebp
  363ce4:	53                   	push   %ebx
  363ce5:	8b 45 08             	mov    0x8(%ebp),%eax
  363ce8:	c1 e0 02             	shl    $0x2,%eax
  363ceb:	8d 14 c5 00 00 00 00 	lea    0x0(,%eax,8),%edx
  363cf2:	29 c2                	sub    %eax,%edx
  363cf4:	89 d0                	mov    %edx,%eax
  363cf6:	05 94 3c 37 00       	add    $0x373c94,%eax
  363cfb:	8b 48 04             	mov    0x4(%eax),%ecx
  363cfe:	8b 45 08             	mov    0x8(%ebp),%eax
  363d01:	c1 e0 02             	shl    $0x2,%eax
  363d04:	8d 14 c5 00 00 00 00 	lea    0x0(,%eax,8),%edx
  363d0b:	29 c2                	sub    %eax,%edx
  363d0d:	89 d0                	mov    %edx,%eax
  363d0f:	05 94 3c 37 00       	add    $0x373c94,%eax
  363d14:	8b 50 04             	mov    0x4(%eax),%edx
  363d17:	8b 45 08             	mov    0x8(%ebp),%eax
  363d1a:	c1 e0 02             	shl    $0x2,%eax
  363d1d:	8d 1c c5 00 00 00 00 	lea    0x0(,%eax,8),%ebx
  363d24:	29 c3                	sub    %eax,%ebx
  363d26:	89 d8                	mov    %ebx,%eax
  363d28:	05 84 3c 37 00       	add    $0x373c84,%eax
  363d2d:	8b 40 04             	mov    0x4(%eax),%eax
  363d30:	29 c2                	sub    %eax,%edx
  363d32:	89 d0                	mov    %edx,%eax
  363d34:	8b 1d f0 31 37 00    	mov    0x3731f0,%ebx
  363d3a:	ba 00 00 00 00       	mov    $0x0,%edx
  363d3f:	f7 f3                	div    %ebx
  363d41:	89 d0                	mov    %edx,%eax
  363d43:	29 c1                	sub    %eax,%ecx
  363d45:	89 ca                	mov    %ecx,%edx
  363d47:	8b 45 08             	mov    0x8(%ebp),%eax
  363d4a:	c1 e0 02             	shl    $0x2,%eax
  363d4d:	8d 0c c5 00 00 00 00 	lea    0x0(,%eax,8),%ecx
  363d54:	29 c1                	sub    %eax,%ecx
  363d56:	89 c8                	mov    %ecx,%eax
  363d58:	05 94 3c 37 00       	add    $0x373c94,%eax
  363d5d:	89 50 04             	mov    %edx,0x4(%eax)
  363d60:	ff 75 08             	pushl  0x8(%ebp)
  363d63:	e8 5b fa ff ff       	call   3637c3 <set_cur>
  363d68:	83 c4 04             	add    $0x4,%esp
  363d6b:	8b 5d fc             	mov    -0x4(%ebp),%ebx
  363d6e:	c9                   	leave  
  363d6f:	c3                   	ret    

00363d70 <del>:
  363d70:	55                   	push   %ebp
  363d71:	89 e5                	mov    %esp,%ebp
  363d73:	8b 45 08             	mov    0x8(%ebp),%eax
  363d76:	c1 e0 02             	shl    $0x2,%eax
  363d79:	8d 14 c5 00 00 00 00 	lea    0x0(,%eax,8),%edx
  363d80:	29 c2                	sub    %eax,%edx
  363d82:	89 d0                	mov    %edx,%eax
  363d84:	05 94 3c 37 00       	add    $0x373c94,%eax
  363d89:	8b 50 04             	mov    0x4(%eax),%edx
  363d8c:	8b 45 08             	mov    0x8(%ebp),%eax
  363d8f:	c1 e0 02             	shl    $0x2,%eax
  363d92:	8d 0c c5 00 00 00 00 	lea    0x0(,%eax,8),%ecx
  363d99:	29 c1                	sub    %eax,%ecx
  363d9b:	89 c8                	mov    %ecx,%eax
  363d9d:	05 84 3c 37 00       	add    $0x373c84,%eax
  363da2:	8b 40 04             	mov    0x4(%eax),%eax
  363da5:	29 c2                	sub    %eax,%edx
  363da7:	89 d0                	mov    %edx,%eax
  363da9:	8b 0d f0 31 37 00    	mov    0x3731f0,%ecx
  363daf:	ba 00 00 00 00       	mov    $0x0,%edx
  363db4:	f7 f1                	div    %ecx
  363db6:	89 d0                	mov    %edx,%eax
  363db8:	85 c0                	test   %eax,%eax
  363dba:	74 6d                	je     363e29 <del+0xb9>
  363dbc:	8b 45 08             	mov    0x8(%ebp),%eax
  363dbf:	c1 e0 02             	shl    $0x2,%eax
  363dc2:	8d 14 c5 00 00 00 00 	lea    0x0(,%eax,8),%edx
  363dc9:	29 c2                	sub    %eax,%edx
  363dcb:	89 d0                	mov    %edx,%eax
  363dcd:	05 94 3c 37 00       	add    $0x373c94,%eax
  363dd2:	8b 40 04             	mov    0x4(%eax),%eax
  363dd5:	8d 50 fe             	lea    -0x2(%eax),%edx
  363dd8:	8b 45 08             	mov    0x8(%ebp),%eax
  363ddb:	c1 e0 02             	shl    $0x2,%eax
  363dde:	8d 0c c5 00 00 00 00 	lea    0x0(,%eax,8),%ecx
  363de5:	29 c1                	sub    %eax,%ecx
  363de7:	89 c8                	mov    %ecx,%eax
  363de9:	05 94 3c 37 00       	add    $0x373c94,%eax
  363dee:	89 50 04             	mov    %edx,0x4(%eax)
  363df1:	8b 45 08             	mov    0x8(%ebp),%eax
  363df4:	c1 e0 02             	shl    $0x2,%eax
  363df7:	8d 14 c5 00 00 00 00 	lea    0x0(,%eax,8),%edx
  363dfe:	29 c2                	sub    %eax,%edx
  363e00:	89 d0                	mov    %edx,%eax
  363e02:	05 94 3c 37 00       	add    $0x373c94,%eax
  363e07:	8b 40 04             	mov    0x4(%eax),%eax
  363e0a:	89 c1                	mov    %eax,%ecx
  363e0c:	8b 45 08             	mov    0x8(%ebp),%eax
  363e0f:	c1 e0 02             	shl    $0x2,%eax
  363e12:	8d 14 c5 00 00 00 00 	lea    0x0(,%eax,8),%edx
  363e19:	29 c2                	sub    %eax,%edx
  363e1b:	89 d0                	mov    %edx,%eax
  363e1d:	05 84 3c 37 00       	add    $0x373c84,%eax
  363e22:	0f b7 40 02          	movzwl 0x2(%eax),%eax
  363e26:	66 89 01             	mov    %ax,(%ecx)
  363e29:	ff 75 08             	pushl  0x8(%ebp)
  363e2c:	e8 92 f9 ff ff       	call   3637c3 <set_cur>
  363e31:	83 c4 04             	add    $0x4,%esp
  363e34:	c9                   	leave  
  363e35:	c3                   	ret    

00363e36 <insert>:
  363e36:	55                   	push   %ebp
  363e37:	89 e5                	mov    %esp,%ebp
  363e39:	53                   	push   %ebx
  363e3a:	83 ec 04             	sub    $0x4,%esp
  363e3d:	8b 45 0c             	mov    0xc(%ebp),%eax
  363e40:	88 45 f8             	mov    %al,-0x8(%ebp)
  363e43:	8b 45 08             	mov    0x8(%ebp),%eax
  363e46:	c1 e0 02             	shl    $0x2,%eax
  363e49:	8d 14 c5 00 00 00 00 	lea    0x0(,%eax,8),%edx
  363e50:	29 c2                	sub    %eax,%edx
  363e52:	89 d0                	mov    %edx,%eax
  363e54:	05 94 3c 37 00       	add    $0x373c94,%eax
  363e59:	8b 40 04             	mov    0x4(%eax),%eax
  363e5c:	89 c3                	mov    %eax,%ebx
  363e5e:	0f b6 55 f8          	movzbl -0x8(%ebp),%edx
  363e62:	8b 45 08             	mov    0x8(%ebp),%eax
  363e65:	c1 e0 02             	shl    $0x2,%eax
  363e68:	8d 0c c5 00 00 00 00 	lea    0x0(,%eax,8),%ecx
  363e6f:	29 c1                	sub    %eax,%ecx
  363e71:	89 c8                	mov    %ecx,%eax
  363e73:	05 84 3c 37 00       	add    $0x373c84,%eax
  363e78:	0f b6 00             	movzbl (%eax),%eax
  363e7b:	0f b6 c0             	movzbl %al,%eax
  363e7e:	c1 e0 08             	shl    $0x8,%eax
  363e81:	09 d0                	or     %edx,%eax
  363e83:	66 89 03             	mov    %ax,(%ebx)
  363e86:	8b 45 08             	mov    0x8(%ebp),%eax
  363e89:	c1 e0 02             	shl    $0x2,%eax
  363e8c:	8d 14 c5 00 00 00 00 	lea    0x0(,%eax,8),%edx
  363e93:	29 c2                	sub    %eax,%edx
  363e95:	89 d0                	mov    %edx,%eax
  363e97:	05 94 3c 37 00       	add    $0x373c94,%eax
  363e9c:	8b 40 04             	mov    0x4(%eax),%eax
  363e9f:	8d 48 02             	lea    0x2(%eax),%ecx
  363ea2:	8b 45 08             	mov    0x8(%ebp),%eax
  363ea5:	c1 e0 02             	shl    $0x2,%eax
  363ea8:	8d 14 c5 00 00 00 00 	lea    0x0(,%eax,8),%edx
  363eaf:	29 c2                	sub    %eax,%edx
  363eb1:	89 d0                	mov    %edx,%eax
  363eb3:	05 94 3c 37 00       	add    $0x373c94,%eax
  363eb8:	8b 00                	mov    (%eax),%eax
  363eba:	39 c1                	cmp    %eax,%ecx
  363ebc:	76 0b                	jbe    363ec9 <insert+0x93>
  363ebe:	ff 75 08             	pushl  0x8(%ebp)
  363ec1:	e8 9a f9 ff ff       	call   363860 <scrup>
  363ec6:	83 c4 04             	add    $0x4,%esp
  363ec9:	8b 45 08             	mov    0x8(%ebp),%eax
  363ecc:	c1 e0 02             	shl    $0x2,%eax
  363ecf:	8d 14 c5 00 00 00 00 	lea    0x0(,%eax,8),%edx
  363ed6:	29 c2                	sub    %eax,%edx
  363ed8:	89 d0                	mov    %edx,%eax
  363eda:	05 94 3c 37 00       	add    $0x373c94,%eax
  363edf:	8b 40 04             	mov    0x4(%eax),%eax
  363ee2:	8d 50 02             	lea    0x2(%eax),%edx
  363ee5:	8b 45 08             	mov    0x8(%ebp),%eax
  363ee8:	c1 e0 02             	shl    $0x2,%eax
  363eeb:	8d 0c c5 00 00 00 00 	lea    0x0(,%eax,8),%ecx
  363ef2:	29 c1                	sub    %eax,%ecx
  363ef4:	89 c8                	mov    %ecx,%eax
  363ef6:	05 94 3c 37 00       	add    $0x373c94,%eax
  363efb:	89 50 04             	mov    %edx,0x4(%eax)
  363efe:	ff 75 08             	pushl  0x8(%ebp)
  363f01:	e8 bd f8 ff ff       	call   3637c3 <set_cur>
  363f06:	83 c4 04             	add    $0x4,%esp
  363f09:	8b 5d fc             	mov    -0x4(%ebp),%ebx
  363f0c:	c9                   	leave  
  363f0d:	c3                   	ret    

00363f0e <cons_print>:
  363f0e:	55                   	push   %ebp
  363f0f:	89 e5                	mov    %esp,%ebp
  363f11:	83 ec 10             	sub    $0x10,%esp
  363f14:	c7 45 fc 00 00 00 00 	movl   $0x0,-0x4(%ebp)
  363f1b:	e9 a5 05 00 00       	jmp    3644c5 <cons_print+0x5b7>
  363f20:	8b 55 fc             	mov    -0x4(%ebp),%edx
  363f23:	8b 45 0c             	mov    0xc(%ebp),%eax
  363f26:	01 d0                	add    %edx,%eax
  363f28:	0f b6 00             	movzbl (%eax),%eax
  363f2b:	88 45 fb             	mov    %al,-0x5(%ebp)
  363f2e:	8b 45 08             	mov    0x8(%ebp),%eax
  363f31:	c1 e0 02             	shl    $0x2,%eax
  363f34:	8d 14 c5 00 00 00 00 	lea    0x0(,%eax,8),%edx
  363f3b:	29 c2                	sub    %eax,%edx
  363f3d:	89 d0                	mov    %edx,%eax
  363f3f:	05 94 3c 37 00       	add    $0x373c94,%eax
  363f44:	8b 40 08             	mov    0x8(%eax),%eax
  363f47:	83 f8 01             	cmp    $0x1,%eax
  363f4a:	0f 85 0b 05 00 00    	jne    36445b <cons_print+0x54d>
  363f50:	0f b6 45 fb          	movzbl -0x5(%ebp),%eax
  363f54:	83 e8 42             	sub    $0x42,%eax
  363f57:	83 f8 37             	cmp    $0x37,%eax
  363f5a:	0f 87 dc 04 00 00    	ja     36443c <cons_print+0x52e>
  363f60:	8b 04 85 ec d3 36 00 	mov    0x36d3ec(,%eax,4),%eax
  363f67:	ff e0                	jmp    *%eax
  363f69:	8b 45 08             	mov    0x8(%ebp),%eax
  363f6c:	c1 e0 02             	shl    $0x2,%eax
  363f6f:	8d 14 c5 00 00 00 00 	lea    0x0(,%eax,8),%edx
  363f76:	29 c2                	sub    %eax,%edx
  363f78:	89 d0                	mov    %edx,%eax
  363f7a:	05 84 3c 37 00       	add    $0x373c84,%eax
  363f7f:	0f b6 00             	movzbl (%eax),%eax
  363f82:	83 e0 f8             	and    $0xfffffff8,%eax
  363f85:	89 c2                	mov    %eax,%edx
  363f87:	8b 45 08             	mov    0x8(%ebp),%eax
  363f8a:	c1 e0 02             	shl    $0x2,%eax
  363f8d:	8d 0c c5 00 00 00 00 	lea    0x0(,%eax,8),%ecx
  363f94:	29 c1                	sub    %eax,%ecx
  363f96:	89 c8                	mov    %ecx,%eax
  363f98:	05 84 3c 37 00       	add    $0x373c84,%eax
  363f9d:	88 10                	mov    %dl,(%eax)
  363f9f:	e9 98 04 00 00       	jmp    36443c <cons_print+0x52e>
  363fa4:	8b 45 08             	mov    0x8(%ebp),%eax
  363fa7:	c1 e0 02             	shl    $0x2,%eax
  363faa:	8d 14 c5 00 00 00 00 	lea    0x0(,%eax,8),%edx
  363fb1:	29 c2                	sub    %eax,%edx
  363fb3:	89 d0                	mov    %edx,%eax
  363fb5:	05 84 3c 37 00       	add    $0x373c84,%eax
  363fba:	0f b6 00             	movzbl (%eax),%eax
  363fbd:	83 e0 8f             	and    $0xffffff8f,%eax
  363fc0:	89 c2                	mov    %eax,%edx
  363fc2:	8b 45 08             	mov    0x8(%ebp),%eax
  363fc5:	c1 e0 02             	shl    $0x2,%eax
  363fc8:	8d 0c c5 00 00 00 00 	lea    0x0(,%eax,8),%ecx
  363fcf:	29 c1                	sub    %eax,%ecx
  363fd1:	89 c8                	mov    %ecx,%eax
  363fd3:	05 84 3c 37 00       	add    $0x373c84,%eax
  363fd8:	88 10                	mov    %dl,(%eax)
  363fda:	e9 5d 04 00 00       	jmp    36443c <cons_print+0x52e>
  363fdf:	8b 45 08             	mov    0x8(%ebp),%eax
  363fe2:	c1 e0 02             	shl    $0x2,%eax
  363fe5:	8d 14 c5 00 00 00 00 	lea    0x0(,%eax,8),%edx
  363fec:	29 c2                	sub    %eax,%edx
  363fee:	89 d0                	mov    %edx,%eax
  363ff0:	05 84 3c 37 00       	add    $0x373c84,%eax
  363ff5:	0f b6 00             	movzbl (%eax),%eax
  363ff8:	83 e0 f8             	and    $0xfffffff8,%eax
  363ffb:	83 c8 01             	or     $0x1,%eax
  363ffe:	89 c1                	mov    %eax,%ecx
  364000:	8b 45 08             	mov    0x8(%ebp),%eax
  364003:	c1 e0 02             	shl    $0x2,%eax
  364006:	8d 14 c5 00 00 00 00 	lea    0x0(,%eax,8),%edx
  36400d:	29 c2                	sub    %eax,%edx
  36400f:	89 d0                	mov    %edx,%eax
  364011:	05 84 3c 37 00       	add    $0x373c84,%eax
  364016:	88 08                	mov    %cl,(%eax)
  364018:	e9 1f 04 00 00       	jmp    36443c <cons_print+0x52e>
  36401d:	8b 45 08             	mov    0x8(%ebp),%eax
  364020:	c1 e0 02             	shl    $0x2,%eax
  364023:	8d 14 c5 00 00 00 00 	lea    0x0(,%eax,8),%edx
  36402a:	29 c2                	sub    %eax,%edx
  36402c:	89 d0                	mov    %edx,%eax
  36402e:	05 84 3c 37 00       	add    $0x373c84,%eax
  364033:	0f b6 00             	movzbl (%eax),%eax
  364036:	83 e0 8f             	and    $0xffffff8f,%eax
  364039:	83 c8 10             	or     $0x10,%eax
  36403c:	89 c1                	mov    %eax,%ecx
  36403e:	8b 45 08             	mov    0x8(%ebp),%eax
  364041:	c1 e0 02             	shl    $0x2,%eax
  364044:	8d 14 c5 00 00 00 00 	lea    0x0(,%eax,8),%edx
  36404b:	29 c2                	sub    %eax,%edx
  36404d:	89 d0                	mov    %edx,%eax
  36404f:	05 84 3c 37 00       	add    $0x373c84,%eax
  364054:	88 08                	mov    %cl,(%eax)
  364056:	e9 e1 03 00 00       	jmp    36443c <cons_print+0x52e>
  36405b:	8b 45 08             	mov    0x8(%ebp),%eax
  36405e:	c1 e0 02             	shl    $0x2,%eax
  364061:	8d 14 c5 00 00 00 00 	lea    0x0(,%eax,8),%edx
  364068:	29 c2                	sub    %eax,%edx
  36406a:	89 d0                	mov    %edx,%eax
  36406c:	05 84 3c 37 00       	add    $0x373c84,%eax
  364071:	0f b6 00             	movzbl (%eax),%eax
  364074:	83 e0 f8             	and    $0xfffffff8,%eax
  364077:	83 c8 02             	or     $0x2,%eax
  36407a:	89 c1                	mov    %eax,%ecx
  36407c:	8b 45 08             	mov    0x8(%ebp),%eax
  36407f:	c1 e0 02             	shl    $0x2,%eax
  364082:	8d 14 c5 00 00 00 00 	lea    0x0(,%eax,8),%edx
  364089:	29 c2                	sub    %eax,%edx
  36408b:	89 d0                	mov    %edx,%eax
  36408d:	05 84 3c 37 00       	add    $0x373c84,%eax
  364092:	88 08                	mov    %cl,(%eax)
  364094:	e9 a3 03 00 00       	jmp    36443c <cons_print+0x52e>
  364099:	8b 45 08             	mov    0x8(%ebp),%eax
  36409c:	c1 e0 02             	shl    $0x2,%eax
  36409f:	8d 14 c5 00 00 00 00 	lea    0x0(,%eax,8),%edx
  3640a6:	29 c2                	sub    %eax,%edx
  3640a8:	89 d0                	mov    %edx,%eax
  3640aa:	05 84 3c 37 00       	add    $0x373c84,%eax
  3640af:	0f b6 00             	movzbl (%eax),%eax
  3640b2:	83 e0 8f             	and    $0xffffff8f,%eax
  3640b5:	83 c8 20             	or     $0x20,%eax
  3640b8:	89 c1                	mov    %eax,%ecx
  3640ba:	8b 45 08             	mov    0x8(%ebp),%eax
  3640bd:	c1 e0 02             	shl    $0x2,%eax
  3640c0:	8d 14 c5 00 00 00 00 	lea    0x0(,%eax,8),%edx
  3640c7:	29 c2                	sub    %eax,%edx
  3640c9:	89 d0                	mov    %edx,%eax
  3640cb:	05 84 3c 37 00       	add    $0x373c84,%eax
  3640d0:	88 08                	mov    %cl,(%eax)
  3640d2:	e9 65 03 00 00       	jmp    36443c <cons_print+0x52e>
  3640d7:	8b 45 08             	mov    0x8(%ebp),%eax
  3640da:	c1 e0 02             	shl    $0x2,%eax
  3640dd:	8d 14 c5 00 00 00 00 	lea    0x0(,%eax,8),%edx
  3640e4:	29 c2                	sub    %eax,%edx
  3640e6:	89 d0                	mov    %edx,%eax
  3640e8:	05 84 3c 37 00       	add    $0x373c84,%eax
  3640ed:	0f b6 00             	movzbl (%eax),%eax
  3640f0:	83 e0 f8             	and    $0xfffffff8,%eax
  3640f3:	83 c8 03             	or     $0x3,%eax
  3640f6:	89 c1                	mov    %eax,%ecx
  3640f8:	8b 45 08             	mov    0x8(%ebp),%eax
  3640fb:	c1 e0 02             	shl    $0x2,%eax
  3640fe:	8d 14 c5 00 00 00 00 	lea    0x0(,%eax,8),%edx
  364105:	29 c2                	sub    %eax,%edx
  364107:	89 d0                	mov    %edx,%eax
  364109:	05 84 3c 37 00       	add    $0x373c84,%eax
  36410e:	88 08                	mov    %cl,(%eax)
  364110:	e9 27 03 00 00       	jmp    36443c <cons_print+0x52e>
  364115:	8b 45 08             	mov    0x8(%ebp),%eax
  364118:	c1 e0 02             	shl    $0x2,%eax
  36411b:	8d 14 c5 00 00 00 00 	lea    0x0(,%eax,8),%edx
  364122:	29 c2                	sub    %eax,%edx
  364124:	89 d0                	mov    %edx,%eax
  364126:	05 84 3c 37 00       	add    $0x373c84,%eax
  36412b:	0f b6 00             	movzbl (%eax),%eax
  36412e:	83 e0 8f             	and    $0xffffff8f,%eax
  364131:	83 c8 30             	or     $0x30,%eax
  364134:	89 c1                	mov    %eax,%ecx
  364136:	8b 45 08             	mov    0x8(%ebp),%eax
  364139:	c1 e0 02             	shl    $0x2,%eax
  36413c:	8d 14 c5 00 00 00 00 	lea    0x0(,%eax,8),%edx
  364143:	29 c2                	sub    %eax,%edx
  364145:	89 d0                	mov    %edx,%eax
  364147:	05 84 3c 37 00       	add    $0x373c84,%eax
  36414c:	88 08                	mov    %cl,(%eax)
  36414e:	e9 e9 02 00 00       	jmp    36443c <cons_print+0x52e>
  364153:	8b 45 08             	mov    0x8(%ebp),%eax
  364156:	c1 e0 02             	shl    $0x2,%eax
  364159:	8d 14 c5 00 00 00 00 	lea    0x0(,%eax,8),%edx
  364160:	29 c2                	sub    %eax,%edx
  364162:	89 d0                	mov    %edx,%eax
  364164:	05 84 3c 37 00       	add    $0x373c84,%eax
  364169:	0f b6 00             	movzbl (%eax),%eax
  36416c:	83 e0 f8             	and    $0xfffffff8,%eax
  36416f:	83 c8 04             	or     $0x4,%eax
  364172:	89 c1                	mov    %eax,%ecx
  364174:	8b 45 08             	mov    0x8(%ebp),%eax
  364177:	c1 e0 02             	shl    $0x2,%eax
  36417a:	8d 14 c5 00 00 00 00 	lea    0x0(,%eax,8),%edx
  364181:	29 c2                	sub    %eax,%edx
  364183:	89 d0                	mov    %edx,%eax
  364185:	05 84 3c 37 00       	add    $0x373c84,%eax
  36418a:	88 08                	mov    %cl,(%eax)
  36418c:	e9 ab 02 00 00       	jmp    36443c <cons_print+0x52e>
  364191:	8b 45 08             	mov    0x8(%ebp),%eax
  364194:	c1 e0 02             	shl    $0x2,%eax
  364197:	8d 14 c5 00 00 00 00 	lea    0x0(,%eax,8),%edx
  36419e:	29 c2                	sub    %eax,%edx
  3641a0:	89 d0                	mov    %edx,%eax
  3641a2:	05 84 3c 37 00       	add    $0x373c84,%eax
  3641a7:	0f b6 00             	movzbl (%eax),%eax
  3641aa:	83 e0 8f             	and    $0xffffff8f,%eax
  3641ad:	83 c8 40             	or     $0x40,%eax
  3641b0:	89 c1                	mov    %eax,%ecx
  3641b2:	8b 45 08             	mov    0x8(%ebp),%eax
  3641b5:	c1 e0 02             	shl    $0x2,%eax
  3641b8:	8d 14 c5 00 00 00 00 	lea    0x0(,%eax,8),%edx
  3641bf:	29 c2                	sub    %eax,%edx
  3641c1:	89 d0                	mov    %edx,%eax
  3641c3:	05 84 3c 37 00       	add    $0x373c84,%eax
  3641c8:	88 08                	mov    %cl,(%eax)
  3641ca:	e9 6d 02 00 00       	jmp    36443c <cons_print+0x52e>
  3641cf:	8b 45 08             	mov    0x8(%ebp),%eax
  3641d2:	c1 e0 02             	shl    $0x2,%eax
  3641d5:	8d 14 c5 00 00 00 00 	lea    0x0(,%eax,8),%edx
  3641dc:	29 c2                	sub    %eax,%edx
  3641de:	89 d0                	mov    %edx,%eax
  3641e0:	05 84 3c 37 00       	add    $0x373c84,%eax
  3641e5:	0f b6 00             	movzbl (%eax),%eax
  3641e8:	83 e0 f8             	and    $0xfffffff8,%eax
  3641eb:	83 c8 05             	or     $0x5,%eax
  3641ee:	89 c1                	mov    %eax,%ecx
  3641f0:	8b 45 08             	mov    0x8(%ebp),%eax
  3641f3:	c1 e0 02             	shl    $0x2,%eax
  3641f6:	8d 14 c5 00 00 00 00 	lea    0x0(,%eax,8),%edx
  3641fd:	29 c2                	sub    %eax,%edx
  3641ff:	89 d0                	mov    %edx,%eax
  364201:	05 84 3c 37 00       	add    $0x373c84,%eax
  364206:	88 08                	mov    %cl,(%eax)
  364208:	e9 2f 02 00 00       	jmp    36443c <cons_print+0x52e>
  36420d:	8b 45 08             	mov    0x8(%ebp),%eax
  364210:	c1 e0 02             	shl    $0x2,%eax
  364213:	8d 14 c5 00 00 00 00 	lea    0x0(,%eax,8),%edx
  36421a:	29 c2                	sub    %eax,%edx
  36421c:	89 d0                	mov    %edx,%eax
  36421e:	05 84 3c 37 00       	add    $0x373c84,%eax
  364223:	0f b6 00             	movzbl (%eax),%eax
  364226:	83 e0 8f             	and    $0xffffff8f,%eax
  364229:	83 c8 50             	or     $0x50,%eax
  36422c:	89 c1                	mov    %eax,%ecx
  36422e:	8b 45 08             	mov    0x8(%ebp),%eax
  364231:	c1 e0 02             	shl    $0x2,%eax
  364234:	8d 14 c5 00 00 00 00 	lea    0x0(,%eax,8),%edx
  36423b:	29 c2                	sub    %eax,%edx
  36423d:	89 d0                	mov    %edx,%eax
  36423f:	05 84 3c 37 00       	add    $0x373c84,%eax
  364244:	88 08                	mov    %cl,(%eax)
  364246:	e9 f1 01 00 00       	jmp    36443c <cons_print+0x52e>
  36424b:	8b 45 08             	mov    0x8(%ebp),%eax
  36424e:	c1 e0 02             	shl    $0x2,%eax
  364251:	8d 14 c5 00 00 00 00 	lea    0x0(,%eax,8),%edx
  364258:	29 c2                	sub    %eax,%edx
  36425a:	89 d0                	mov    %edx,%eax
  36425c:	05 84 3c 37 00       	add    $0x373c84,%eax
  364261:	0f b6 00             	movzbl (%eax),%eax
  364264:	83 e0 f8             	and    $0xfffffff8,%eax
  364267:	83 c8 06             	or     $0x6,%eax
  36426a:	89 c1                	mov    %eax,%ecx
  36426c:	8b 45 08             	mov    0x8(%ebp),%eax
  36426f:	c1 e0 02             	shl    $0x2,%eax
  364272:	8d 14 c5 00 00 00 00 	lea    0x0(,%eax,8),%edx
  364279:	29 c2                	sub    %eax,%edx
  36427b:	89 d0                	mov    %edx,%eax
  36427d:	05 84 3c 37 00       	add    $0x373c84,%eax
  364282:	88 08                	mov    %cl,(%eax)
  364284:	e9 b3 01 00 00       	jmp    36443c <cons_print+0x52e>
  364289:	8b 45 08             	mov    0x8(%ebp),%eax
  36428c:	c1 e0 02             	shl    $0x2,%eax
  36428f:	8d 14 c5 00 00 00 00 	lea    0x0(,%eax,8),%edx
  364296:	29 c2                	sub    %eax,%edx
  364298:	89 d0                	mov    %edx,%eax
  36429a:	05 84 3c 37 00       	add    $0x373c84,%eax
  36429f:	0f b6 00             	movzbl (%eax),%eax
  3642a2:	83 e0 8f             	and    $0xffffff8f,%eax
  3642a5:	83 c8 60             	or     $0x60,%eax
  3642a8:	89 c1                	mov    %eax,%ecx
  3642aa:	8b 45 08             	mov    0x8(%ebp),%eax
  3642ad:	c1 e0 02             	shl    $0x2,%eax
  3642b0:	8d 14 c5 00 00 00 00 	lea    0x0(,%eax,8),%edx
  3642b7:	29 c2                	sub    %eax,%edx
  3642b9:	89 d0                	mov    %edx,%eax
  3642bb:	05 84 3c 37 00       	add    $0x373c84,%eax
  3642c0:	88 08                	mov    %cl,(%eax)
  3642c2:	e9 75 01 00 00       	jmp    36443c <cons_print+0x52e>
  3642c7:	8b 45 08             	mov    0x8(%ebp),%eax
  3642ca:	c1 e0 02             	shl    $0x2,%eax
  3642cd:	8d 14 c5 00 00 00 00 	lea    0x0(,%eax,8),%edx
  3642d4:	29 c2                	sub    %eax,%edx
  3642d6:	89 d0                	mov    %edx,%eax
  3642d8:	05 84 3c 37 00       	add    $0x373c84,%eax
  3642dd:	0f b6 00             	movzbl (%eax),%eax
  3642e0:	83 c8 07             	or     $0x7,%eax
  3642e3:	89 c1                	mov    %eax,%ecx
  3642e5:	8b 45 08             	mov    0x8(%ebp),%eax
  3642e8:	c1 e0 02             	shl    $0x2,%eax
  3642eb:	8d 14 c5 00 00 00 00 	lea    0x0(,%eax,8),%edx
  3642f2:	29 c2                	sub    %eax,%edx
  3642f4:	89 d0                	mov    %edx,%eax
  3642f6:	05 84 3c 37 00       	add    $0x373c84,%eax
  3642fb:	88 08                	mov    %cl,(%eax)
  3642fd:	e9 3a 01 00 00       	jmp    36443c <cons_print+0x52e>
  364302:	8b 45 08             	mov    0x8(%ebp),%eax
  364305:	c1 e0 02             	shl    $0x2,%eax
  364308:	8d 14 c5 00 00 00 00 	lea    0x0(,%eax,8),%edx
  36430f:	29 c2                	sub    %eax,%edx
  364311:	89 d0                	mov    %edx,%eax
  364313:	05 84 3c 37 00       	add    $0x373c84,%eax
  364318:	0f b6 00             	movzbl (%eax),%eax
  36431b:	83 c8 70             	or     $0x70,%eax
  36431e:	89 c1                	mov    %eax,%ecx
  364320:	8b 45 08             	mov    0x8(%ebp),%eax
  364323:	c1 e0 02             	shl    $0x2,%eax
  364326:	8d 14 c5 00 00 00 00 	lea    0x0(,%eax,8),%edx
  36432d:	29 c2                	sub    %eax,%edx
  36432f:	89 d0                	mov    %edx,%eax
  364331:	05 84 3c 37 00       	add    $0x373c84,%eax
  364336:	88 08                	mov    %cl,(%eax)
  364338:	e9 ff 00 00 00       	jmp    36443c <cons_print+0x52e>
  36433d:	8b 45 08             	mov    0x8(%ebp),%eax
  364340:	c1 e0 02             	shl    $0x2,%eax
  364343:	8d 14 c5 00 00 00 00 	lea    0x0(,%eax,8),%edx
  36434a:	29 c2                	sub    %eax,%edx
  36434c:	89 d0                	mov    %edx,%eax
  36434e:	05 84 3c 37 00       	add    $0x373c84,%eax
  364353:	0f b6 00             	movzbl (%eax),%eax
  364356:	83 c8 08             	or     $0x8,%eax
  364359:	89 c1                	mov    %eax,%ecx
  36435b:	8b 45 08             	mov    0x8(%ebp),%eax
  36435e:	c1 e0 02             	shl    $0x2,%eax
  364361:	8d 14 c5 00 00 00 00 	lea    0x0(,%eax,8),%edx
  364368:	29 c2                	sub    %eax,%edx
  36436a:	89 d0                	mov    %edx,%eax
  36436c:	05 84 3c 37 00       	add    $0x373c84,%eax
  364371:	88 08                	mov    %cl,(%eax)
  364373:	e9 c4 00 00 00       	jmp    36443c <cons_print+0x52e>
  364378:	8b 45 08             	mov    0x8(%ebp),%eax
  36437b:	c1 e0 02             	shl    $0x2,%eax
  36437e:	8d 14 c5 00 00 00 00 	lea    0x0(,%eax,8),%edx
  364385:	29 c2                	sub    %eax,%edx
  364387:	89 d0                	mov    %edx,%eax
  364389:	05 84 3c 37 00       	add    $0x373c84,%eax
  36438e:	0f b6 00             	movzbl (%eax),%eax
  364391:	83 e0 f7             	and    $0xfffffff7,%eax
  364394:	89 c2                	mov    %eax,%edx
  364396:	8b 45 08             	mov    0x8(%ebp),%eax
  364399:	c1 e0 02             	shl    $0x2,%eax
  36439c:	8d 0c c5 00 00 00 00 	lea    0x0(,%eax,8),%ecx
  3643a3:	29 c1                	sub    %eax,%ecx
  3643a5:	89 c8                	mov    %ecx,%eax
  3643a7:	05 84 3c 37 00       	add    $0x373c84,%eax
  3643ac:	88 10                	mov    %dl,(%eax)
  3643ae:	e9 89 00 00 00       	jmp    36443c <cons_print+0x52e>
  3643b3:	8b 45 08             	mov    0x8(%ebp),%eax
  3643b6:	c1 e0 02             	shl    $0x2,%eax
  3643b9:	8d 14 c5 00 00 00 00 	lea    0x0(,%eax,8),%edx
  3643c0:	29 c2                	sub    %eax,%edx
  3643c2:	89 d0                	mov    %edx,%eax
  3643c4:	05 84 3c 37 00       	add    $0x373c84,%eax
  3643c9:	0f b6 00             	movzbl (%eax),%eax
  3643cc:	83 c8 80             	or     $0xffffff80,%eax
  3643cf:	89 c1                	mov    %eax,%ecx
  3643d1:	8b 45 08             	mov    0x8(%ebp),%eax
  3643d4:	c1 e0 02             	shl    $0x2,%eax
  3643d7:	8d 14 c5 00 00 00 00 	lea    0x0(,%eax,8),%edx
  3643de:	29 c2                	sub    %eax,%edx
  3643e0:	89 d0                	mov    %edx,%eax
  3643e2:	05 84 3c 37 00       	add    $0x373c84,%eax
  3643e7:	88 08                	mov    %cl,(%eax)
  3643e9:	eb 51                	jmp    36443c <cons_print+0x52e>
  3643eb:	8b 45 08             	mov    0x8(%ebp),%eax
  3643ee:	c1 e0 02             	shl    $0x2,%eax
  3643f1:	8d 14 c5 00 00 00 00 	lea    0x0(,%eax,8),%edx
  3643f8:	29 c2                	sub    %eax,%edx
  3643fa:	89 d0                	mov    %edx,%eax
  3643fc:	05 84 3c 37 00       	add    $0x373c84,%eax
  364401:	0f b6 00             	movzbl (%eax),%eax
  364404:	83 e0 7f             	and    $0x7f,%eax
  364407:	89 c2                	mov    %eax,%edx
  364409:	8b 45 08             	mov    0x8(%ebp),%eax
  36440c:	c1 e0 02             	shl    $0x2,%eax
  36440f:	8d 0c c5 00 00 00 00 	lea    0x0(,%eax,8),%ecx
  364416:	29 c1                	sub    %eax,%ecx
  364418:	89 c8                	mov    %ecx,%eax
  36441a:	05 84 3c 37 00       	add    $0x373c84,%eax
  36441f:	88 10                	mov    %dl,(%eax)
  364421:	eb 19                	jmp    36443c <cons_print+0x52e>
  364423:	ff 75 08             	pushl  0x8(%ebp)
  364426:	e8 64 f7 ff ff       	call   363b8f <scrdown>
  36442b:	83 c4 04             	add    $0x4,%esp
  36442e:	eb 0c                	jmp    36443c <cons_print+0x52e>
  364430:	ff 75 08             	pushl  0x8(%ebp)
  364433:	e8 28 f4 ff ff       	call   363860 <scrup>
  364438:	83 c4 04             	add    $0x4,%esp
  36443b:	90                   	nop
  36443c:	8b 45 08             	mov    0x8(%ebp),%eax
  36443f:	c1 e0 02             	shl    $0x2,%eax
  364442:	8d 14 c5 00 00 00 00 	lea    0x0(,%eax,8),%edx
  364449:	29 c2                	sub    %eax,%edx
  36444b:	89 d0                	mov    %edx,%eax
  36444d:	05 94 3c 37 00       	add    $0x373c94,%eax
  364452:	c7 40 08 00 00 00 00 	movl   $0x0,0x8(%eax)
  364459:	eb 66                	jmp    3644c1 <cons_print+0x5b3>
  36445b:	80 7d fb 1b          	cmpb   $0x1b,-0x5(%ebp)
  36445f:	75 1f                	jne    364480 <cons_print+0x572>
  364461:	8b 45 08             	mov    0x8(%ebp),%eax
  364464:	c1 e0 02             	shl    $0x2,%eax
  364467:	8d 14 c5 00 00 00 00 	lea    0x0(,%eax,8),%edx
  36446e:	29 c2                	sub    %eax,%edx
  364470:	89 d0                	mov    %edx,%eax
  364472:	05 94 3c 37 00       	add    $0x373c94,%eax
  364477:	c7 40 08 01 00 00 00 	movl   $0x1,0x8(%eax)
  36447e:	eb 41                	jmp    3644c1 <cons_print+0x5b3>
  364480:	80 7d fb 08          	cmpb   $0x8,-0x5(%ebp)
  364484:	75 0d                	jne    364493 <cons_print+0x585>
  364486:	ff 75 08             	pushl  0x8(%ebp)
  364489:	e8 e2 f8 ff ff       	call   363d70 <del>
  36448e:	83 c4 04             	add    $0x4,%esp
  364491:	eb 2e                	jmp    3644c1 <cons_print+0x5b3>
  364493:	80 7d fb 0a          	cmpb   $0xa,-0x5(%ebp)
  364497:	75 18                	jne    3644b1 <cons_print+0x5a3>
  364499:	ff 75 08             	pushl  0x8(%ebp)
  36449c:	e8 af f7 ff ff       	call   363c50 <lf>
  3644a1:	83 c4 04             	add    $0x4,%esp
  3644a4:	ff 75 08             	pushl  0x8(%ebp)
  3644a7:	e8 35 f8 ff ff       	call   363ce1 <cr>
  3644ac:	83 c4 04             	add    $0x4,%esp
  3644af:	eb 10                	jmp    3644c1 <cons_print+0x5b3>
  3644b1:	0f b6 45 fb          	movzbl -0x5(%ebp),%eax
  3644b5:	50                   	push   %eax
  3644b6:	ff 75 08             	pushl  0x8(%ebp)
  3644b9:	e8 78 f9 ff ff       	call   363e36 <insert>
  3644be:	83 c4 08             	add    $0x8,%esp
  3644c1:	83 45 fc 01          	addl   $0x1,-0x4(%ebp)
  3644c5:	8b 45 fc             	mov    -0x4(%ebp),%eax
  3644c8:	3b 45 10             	cmp    0x10(%ebp),%eax
  3644cb:	0f 82 4f fa ff ff    	jb     363f20 <cons_print+0x12>
  3644d1:	c9                   	leave  
  3644d2:	c3                   	ret    

003644d3 <cons_init>:
  3644d3:	55                   	push   %ebp
  3644d4:	89 e5                	mov    %esp,%ebp
  3644d6:	53                   	push   %ebx
  3644d7:	83 ec 10             	sub    $0x10,%esp
  3644da:	c7 45 f8 00 00 00 00 	movl   $0x0,-0x8(%ebp)
  3644e1:	c7 05 f4 31 37 00 00 	movl   $0x0,0x3731f4
  3644e8:	00 00 00 
  3644eb:	c7 05 e4 31 37 00 00 	movl   $0xb8000,0x3731e4
  3644f2:	80 0b 00 
  3644f5:	c7 05 ec 31 37 00 19 	movl   $0x19,0x3731ec
  3644fc:	00 00 00 
  3644ff:	c7 05 e8 31 37 00 50 	movl   $0x50,0x3731e8
  364506:	00 00 00 
  364509:	a1 e8 31 37 00       	mov    0x3731e8,%eax
  36450e:	01 c0                	add    %eax,%eax
  364510:	a3 f0 31 37 00       	mov    %eax,0x3731f0
  364515:	8b 45 f8             	mov    -0x8(%ebp),%eax
  364518:	c1 e0 02             	shl    $0x2,%eax
  36451b:	8d 14 c5 00 00 00 00 	lea    0x0(,%eax,8),%edx
  364522:	29 c2                	sub    %eax,%edx
  364524:	89 d0                	mov    %edx,%eax
  364526:	05 84 3c 37 00       	add    $0x373c84,%eax
  36452b:	c6 00 0f             	movb   $0xf,(%eax)
  36452e:	8b 45 f8             	mov    -0x8(%ebp),%eax
  364531:	c1 e0 02             	shl    $0x2,%eax
  364534:	8d 14 c5 00 00 00 00 	lea    0x0(,%eax,8),%edx
  36453b:	29 c2                	sub    %eax,%edx
  36453d:	89 d0                	mov    %edx,%eax
  36453f:	05 94 3c 37 00       	add    $0x373c94,%eax
  364544:	c7 40 08 00 00 00 00 	movl   $0x0,0x8(%eax)
  36454b:	8b 45 f8             	mov    -0x8(%ebp),%eax
  36454e:	c1 e0 02             	shl    $0x2,%eax
  364551:	8d 14 c5 00 00 00 00 	lea    0x0(,%eax,8),%edx
  364558:	29 c2                	sub    %eax,%edx
  36455a:	89 d0                	mov    %edx,%eax
  36455c:	05 84 3c 37 00       	add    $0x373c84,%eax
  364561:	66 c7 40 02 20 0f    	movw   $0xf20,0x2(%eax)
  364567:	8b 15 e4 31 37 00    	mov    0x3731e4,%edx
  36456d:	8b 45 f8             	mov    -0x8(%ebp),%eax
  364570:	c1 e0 02             	shl    $0x2,%eax
  364573:	8d 0c c5 00 00 00 00 	lea    0x0(,%eax,8),%ecx
  36457a:	29 c1                	sub    %eax,%ecx
  36457c:	89 c8                	mov    %ecx,%eax
  36457e:	05 84 3c 37 00       	add    $0x373c84,%eax
  364583:	89 50 04             	mov    %edx,0x4(%eax)
  364586:	8b 45 f8             	mov    -0x8(%ebp),%eax
  364589:	c1 e0 02             	shl    $0x2,%eax
  36458c:	8d 14 c5 00 00 00 00 	lea    0x0(,%eax,8),%edx
  364593:	29 c2                	sub    %eax,%edx
  364595:	89 d0                	mov    %edx,%eax
  364597:	05 84 3c 37 00       	add    $0x373c84,%eax
  36459c:	8b 40 04             	mov    0x4(%eax),%eax
  36459f:	8d 90 e0 2e 00 00    	lea    0x2ee0(%eax),%edx
  3645a5:	8b 45 f8             	mov    -0x8(%ebp),%eax
  3645a8:	c1 e0 02             	shl    $0x2,%eax
  3645ab:	8d 0c c5 00 00 00 00 	lea    0x0(,%eax,8),%ecx
  3645b2:	29 c1                	sub    %eax,%ecx
  3645b4:	89 c8                	mov    %ecx,%eax
  3645b6:	05 84 3c 37 00       	add    $0x373c84,%eax
  3645bb:	89 50 08             	mov    %edx,0x8(%eax)
  3645be:	c6 45 f7 00          	movb   $0x0,-0x9(%ebp)
  3645c2:	68 d4 03 00 00       	push   $0x3d4
  3645c7:	6a 0c                	push   $0xc
  3645c9:	e8 04 f1 ff ff       	call   3636d2 <outb_p>
  3645ce:	83 c4 08             	add    $0x8,%esp
  3645d1:	68 d5 03 00 00       	push   $0x3d5
  3645d6:	e8 23 f1 ff ff       	call   3636fe <inb_p>
  3645db:	83 c4 04             	add    $0x4,%esp
  3645de:	88 45 f7             	mov    %al,-0x9(%ebp)
  3645e1:	0f b6 45 f7          	movzbl -0x9(%ebp),%eax
  3645e5:	0f b6 c0             	movzbl %al,%eax
  3645e8:	c1 e0 09             	shl    $0x9,%eax
  3645eb:	89 c3                	mov    %eax,%ebx
  3645ed:	c6 45 f6 00          	movb   $0x0,-0xa(%ebp)
  3645f1:	68 d4 03 00 00       	push   $0x3d4
  3645f6:	6a 0d                	push   $0xd
  3645f8:	e8 d5 f0 ff ff       	call   3636d2 <outb_p>
  3645fd:	83 c4 08             	add    $0x8,%esp
  364600:	68 d5 03 00 00       	push   $0x3d5
  364605:	e8 f4 f0 ff ff       	call   3636fe <inb_p>
  36460a:	83 c4 04             	add    $0x4,%esp
  36460d:	88 45 f6             	mov    %al,-0xa(%ebp)
  364610:	0f b6 45 f6          	movzbl -0xa(%ebp),%eax
  364614:	0f b6 c0             	movzbl %al,%eax
  364617:	01 c0                	add    %eax,%eax
  364619:	09 d8                	or     %ebx,%eax
  36461b:	89 c1                	mov    %eax,%ecx
  36461d:	8b 45 f8             	mov    -0x8(%ebp),%eax
  364620:	c1 e0 02             	shl    $0x2,%eax
  364623:	8d 14 c5 00 00 00 00 	lea    0x0(,%eax,8),%edx
  36462a:	29 c2                	sub    %eax,%edx
  36462c:	89 d0                	mov    %edx,%eax
  36462e:	05 84 3c 37 00       	add    $0x373c84,%eax
  364633:	8b 40 04             	mov    0x4(%eax),%eax
  364636:	8d 14 01             	lea    (%ecx,%eax,1),%edx
  364639:	8b 45 f8             	mov    -0x8(%ebp),%eax
  36463c:	c1 e0 02             	shl    $0x2,%eax
  36463f:	8d 0c c5 00 00 00 00 	lea    0x0(,%eax,8),%ecx
  364646:	29 c1                	sub    %eax,%ecx
  364648:	89 c8                	mov    %ecx,%eax
  36464a:	05 84 3c 37 00       	add    $0x373c84,%eax
  36464f:	89 50 0c             	mov    %edx,0xc(%eax)
  364652:	8b 45 f8             	mov    -0x8(%ebp),%eax
  364655:	c1 e0 02             	shl    $0x2,%eax
  364658:	8d 14 c5 00 00 00 00 	lea    0x0(,%eax,8),%edx
  36465f:	29 c2                	sub    %eax,%edx
  364661:	89 d0                	mov    %edx,%eax
  364663:	05 84 3c 37 00       	add    $0x373c84,%eax
  364668:	8b 40 0c             	mov    0xc(%eax),%eax
  36466b:	8d 90 a0 0f 00 00    	lea    0xfa0(%eax),%edx
  364671:	8b 45 f8             	mov    -0x8(%ebp),%eax
  364674:	c1 e0 02             	shl    $0x2,%eax
  364677:	8d 0c c5 00 00 00 00 	lea    0x0(,%eax,8),%ecx
  36467e:	29 c1                	sub    %eax,%ecx
  364680:	89 c8                	mov    %ecx,%eax
  364682:	05 94 3c 37 00       	add    $0x373c94,%eax
  364687:	89 10                	mov    %edx,(%eax)
  364689:	c6 45 f5 00          	movb   $0x0,-0xb(%ebp)
  36468d:	68 d4 03 00 00       	push   $0x3d4
  364692:	6a 0e                	push   $0xe
  364694:	e8 39 f0 ff ff       	call   3636d2 <outb_p>
  364699:	83 c4 08             	add    $0x8,%esp
  36469c:	68 d5 03 00 00       	push   $0x3d5
  3646a1:	e8 58 f0 ff ff       	call   3636fe <inb_p>
  3646a6:	83 c4 04             	add    $0x4,%esp
  3646a9:	88 45 f5             	mov    %al,-0xb(%ebp)
  3646ac:	0f b6 45 f5          	movzbl -0xb(%ebp),%eax
  3646b0:	0f b6 c0             	movzbl %al,%eax
  3646b3:	c1 e0 09             	shl    $0x9,%eax
  3646b6:	89 c3                	mov    %eax,%ebx
  3646b8:	c6 45 f4 00          	movb   $0x0,-0xc(%ebp)
  3646bc:	68 d4 03 00 00       	push   $0x3d4
  3646c1:	6a 0f                	push   $0xf
  3646c3:	e8 0a f0 ff ff       	call   3636d2 <outb_p>
  3646c8:	83 c4 08             	add    $0x8,%esp
  3646cb:	68 d5 03 00 00       	push   $0x3d5
  3646d0:	e8 29 f0 ff ff       	call   3636fe <inb_p>
  3646d5:	83 c4 04             	add    $0x4,%esp
  3646d8:	88 45 f4             	mov    %al,-0xc(%ebp)
  3646db:	0f b6 45 f4          	movzbl -0xc(%ebp),%eax
  3646df:	0f b6 c0             	movzbl %al,%eax
  3646e2:	01 c0                	add    %eax,%eax
  3646e4:	09 d8                	or     %ebx,%eax
  3646e6:	89 c1                	mov    %eax,%ecx
  3646e8:	8b 45 f8             	mov    -0x8(%ebp),%eax
  3646eb:	c1 e0 02             	shl    $0x2,%eax
  3646ee:	8d 14 c5 00 00 00 00 	lea    0x0(,%eax,8),%edx
  3646f5:	29 c2                	sub    %eax,%edx
  3646f7:	89 d0                	mov    %edx,%eax
  3646f9:	05 84 3c 37 00       	add    $0x373c84,%eax
  3646fe:	8b 40 04             	mov    0x4(%eax),%eax
  364701:	8d 14 01             	lea    (%ecx,%eax,1),%edx
  364704:	8b 45 f8             	mov    -0x8(%ebp),%eax
  364707:	c1 e0 02             	shl    $0x2,%eax
  36470a:	8d 0c c5 00 00 00 00 	lea    0x0(,%eax,8),%ecx
  364711:	29 c1                	sub    %eax,%ecx
  364713:	89 c8                	mov    %ecx,%eax
  364715:	05 94 3c 37 00       	add    $0x373c94,%eax
  36471a:	89 50 04             	mov    %edx,0x4(%eax)
  36471d:	8b 5d fc             	mov    -0x4(%ebp),%ebx
  364720:	c9                   	leave  
  364721:	c3                   	ret    

00364722 <cons_write>:
  364722:	55                   	push   %ebp
  364723:	89 e5                	mov    %esp,%ebp
  364725:	57                   	push   %edi
  364726:	56                   	push   %esi
  364727:	53                   	push   %ebx
  364728:	83 ec 10             	sub    $0x10,%esp
  36472b:	ff 75 10             	pushl  0x10(%ebp)
  36472e:	ff 75 0c             	pushl  0xc(%ebp)
  364731:	6a 00                	push   $0x0
  364733:	e8 d6 f7 ff ff       	call   363f0e <cons_print>
  364738:	83 c4 0c             	add    $0xc,%esp
  36473b:	b8 02 00 00 00       	mov    $0x2,%eax
  364740:	8b 5d 08             	mov    0x8(%ebp),%ebx
  364743:	b9 00 00 00 00       	mov    $0x0,%ecx
  364748:	ba 00 00 00 00       	mov    $0x0,%edx
  36474d:	be 00 00 00 00       	mov    $0x0,%esi
  364752:	bf 00 00 00 00       	mov    $0x0,%edi
  364757:	cd 80                	int    $0x80
  364759:	89 45 f0             	mov    %eax,-0x10(%ebp)
  36475c:	8d 65 f4             	lea    -0xc(%ebp),%esp
  36475f:	5b                   	pop    %ebx
  364760:	5e                   	pop    %esi
  364761:	5f                   	pop    %edi
  364762:	5d                   	pop    %ebp
  364763:	c3                   	ret    

00364764 <cons_read>:
  364764:	55                   	push   %ebp
  364765:	89 e5                	mov    %esp,%ebp
  364767:	83 ec 08             	sub    $0x8,%esp
  36476a:	83 ec 04             	sub    $0x4,%esp
  36476d:	ff 75 10             	pushl  0x10(%ebp)
  364770:	ff 75 0c             	pushl  0xc(%ebp)
  364773:	ff 75 08             	pushl  0x8(%ebp)
  364776:	e8 64 03 00 00       	call   364adf <copy_buffer>
  36477b:	83 c4 10             	add    $0x10,%esp
  36477e:	c9                   	leave  
  36477f:	c3                   	ret    

00364780 <cons_main>:
  364780:	55                   	push   %ebp
  364781:	89 e5                	mov    %esp,%ebp
  364783:	57                   	push   %edi
  364784:	56                   	push   %esi
  364785:	53                   	push   %ebx
  364786:	83 ec 1c             	sub    $0x1c,%esp
  364789:	83 ec 08             	sub    $0x8,%esp
  36478c:	68 cc d4 36 00       	push   $0x36d4cc
  364791:	68 d3 d4 36 00       	push   $0x36d4d3
  364796:	e8 ed 48 00 00       	call   369088 <printk>
  36479b:	83 c4 10             	add    $0x10,%esp
  36479e:	e8 30 fd ff ff       	call   3644d3 <cons_init>
  3647a3:	e8 bc 04 00 00       	call   364c64 <keyboard_init>
  3647a8:	b8 03 00 00 00       	mov    $0x3,%eax
  3647ad:	bb 05 00 00 00       	mov    $0x5,%ebx
  3647b2:	b9 64 47 36 00       	mov    $0x364764,%ecx
  3647b7:	ba 00 00 00 00       	mov    $0x0,%edx
  3647bc:	be 00 00 00 00       	mov    $0x0,%esi
  3647c1:	bf 00 00 00 00       	mov    $0x0,%edi
  3647c6:	cd 80                	int    $0x80
  3647c8:	89 45 e4             	mov    %eax,-0x1c(%ebp)
  3647cb:	b8 03 00 00 00       	mov    $0x3,%eax
  3647d0:	bb 06 00 00 00       	mov    $0x6,%ebx
  3647d5:	b9 22 47 36 00       	mov    $0x364722,%ecx
  3647da:	ba 00 00 00 00       	mov    $0x0,%edx
  3647df:	be 00 00 00 00       	mov    $0x0,%esi
  3647e4:	bf 00 00 00 00       	mov    $0x0,%edi
  3647e9:	cd 80                	int    $0x80
  3647eb:	89 45 e0             	mov    %eax,-0x20(%ebp)
  3647ee:	83 ec 08             	sub    $0x8,%esp
  3647f1:	68 cc d4 36 00       	push   $0x36d4cc
  3647f6:	68 e9 d4 36 00       	push   $0x36d4e9
  3647fb:	e8 88 48 00 00       	call   369088 <printk>
  364800:	83 c4 10             	add    $0x10,%esp
  364803:	b8 00 00 00 00       	mov    $0x0,%eax
  364808:	bb 00 00 00 00       	mov    $0x0,%ebx
  36480d:	b9 00 00 00 00       	mov    $0x0,%ecx
  364812:	ba 00 00 00 00       	mov    $0x0,%edx
  364817:	be 00 00 00 00       	mov    $0x0,%esi
  36481c:	bf 00 00 00 00       	mov    $0x0,%edi
  364821:	cd 80                	int    $0x80
  364823:	89 45 dc             	mov    %eax,-0x24(%ebp)
  364826:	b8 00 00 00 00       	mov    $0x0,%eax
  36482b:	8d 65 f4             	lea    -0xc(%ebp),%esp
  36482e:	5b                   	pop    %ebx
  36482f:	5e                   	pop    %esi
  364830:	5f                   	pop    %edi
  364831:	5d                   	pop    %ebp
  364832:	c3                   	ret    

00364833 <outb>:
  364833:	55                   	push   %ebp
  364834:	89 e5                	mov    %esp,%ebp
  364836:	83 ec 08             	sub    $0x8,%esp
  364839:	8b 55 08             	mov    0x8(%ebp),%edx
  36483c:	8b 45 0c             	mov    0xc(%ebp),%eax
  36483f:	88 55 fc             	mov    %dl,-0x4(%ebp)
  364842:	66 89 45 f8          	mov    %ax,-0x8(%ebp)
  364846:	0f b6 45 fc          	movzbl -0x4(%ebp),%eax
  36484a:	0f b7 55 f8          	movzwl -0x8(%ebp),%edx
  36484e:	ee                   	out    %al,(%dx)
  36484f:	c9                   	leave  
  364850:	c3                   	ret    

00364851 <inb>:
  364851:	55                   	push   %ebp
  364852:	89 e5                	mov    %esp,%ebp
  364854:	83 ec 14             	sub    $0x14,%esp
  364857:	8b 45 08             	mov    0x8(%ebp),%eax
  36485a:	66 89 45 ec          	mov    %ax,-0x14(%ebp)
  36485e:	0f b7 45 ec          	movzwl -0x14(%ebp),%eax
  364862:	89 c2                	mov    %eax,%edx
  364864:	ec                   	in     (%dx),%al
  364865:	88 45 ff             	mov    %al,-0x1(%ebp)
  364868:	0f b6 45 ff          	movzbl -0x1(%ebp),%eax
  36486c:	c9                   	leave  
  36486d:	c3                   	ret    

0036486e <io_delay>:
  36486e:	55                   	push   %ebp
  36486f:	89 e5                	mov    %esp,%ebp
  364871:	83 ec 10             	sub    $0x10,%esp
  364874:	66 c7 45 fe 80 00    	movw   $0x80,-0x2(%ebp)
  36487a:	0f b7 45 fe          	movzwl -0x2(%ebp),%eax
  36487e:	89 c2                	mov    %eax,%edx
  364880:	ee                   	out    %al,(%dx)
  364881:	c9                   	leave  
  364882:	c3                   	ret    

00364883 <outb_p>:
  364883:	55                   	push   %ebp
  364884:	89 e5                	mov    %esp,%ebp
  364886:	83 ec 08             	sub    $0x8,%esp
  364889:	8b 55 08             	mov    0x8(%ebp),%edx
  36488c:	8b 45 0c             	mov    0xc(%ebp),%eax
  36488f:	88 55 fc             	mov    %dl,-0x4(%ebp)
  364892:	66 89 45 f8          	mov    %ax,-0x8(%ebp)
  364896:	0f b7 55 f8          	movzwl -0x8(%ebp),%edx
  36489a:	0f b6 45 fc          	movzbl -0x4(%ebp),%eax
  36489e:	52                   	push   %edx
  36489f:	50                   	push   %eax
  3648a0:	e8 8e ff ff ff       	call   364833 <outb>
  3648a5:	83 c4 08             	add    $0x8,%esp
  3648a8:	e8 c1 ff ff ff       	call   36486e <io_delay>
  3648ad:	c9                   	leave  
  3648ae:	c3                   	ret    

003648af <memcpy>:
  3648af:	55                   	push   %ebp
  3648b0:	89 e5                	mov    %esp,%ebp
  3648b2:	57                   	push   %edi
  3648b3:	56                   	push   %esi
  3648b4:	53                   	push   %ebx
  3648b5:	8b 45 10             	mov    0x10(%ebp),%eax
  3648b8:	8b 55 0c             	mov    0xc(%ebp),%edx
  3648bb:	8b 5d 08             	mov    0x8(%ebp),%ebx
  3648be:	89 c1                	mov    %eax,%ecx
  3648c0:	89 d6                	mov    %edx,%esi
  3648c2:	89 df                	mov    %ebx,%edi
  3648c4:	fc                   	cld    
  3648c5:	f3 a4                	rep movsb %ds:(%esi),%es:(%edi)
  3648c7:	8b 45 08             	mov    0x8(%ebp),%eax
  3648ca:	5b                   	pop    %ebx
  3648cb:	5e                   	pop    %esi
  3648cc:	5f                   	pop    %edi
  3648cd:	5d                   	pop    %ebp
  3648ce:	c3                   	ret    

003648cf <_ispress>:
  3648cf:	55                   	push   %ebp
  3648d0:	89 e5                	mov    %esp,%ebp
  3648d2:	57                   	push   %edi
  3648d3:	56                   	push   %esi
  3648d4:	53                   	push   %ebx
  3648d5:	83 ec 10             	sub    $0x10,%esp
  3648d8:	8b 0d 40 33 37 00    	mov    0x373340,%ecx
  3648de:	b8 02 00 00 00       	mov    $0x2,%eax
  3648e3:	8b 5d 08             	mov    0x8(%ebp),%ebx
  3648e6:	ba 00 00 00 00       	mov    $0x0,%edx
  3648eb:	be 00 00 00 00       	mov    $0x0,%esi
  3648f0:	bf 00 00 00 00       	mov    $0x0,%edi
  3648f5:	cd 80                	int    $0x80
  3648f7:	89 45 f0             	mov    %eax,-0x10(%ebp)
  3648fa:	83 c4 10             	add    $0x10,%esp
  3648fd:	5b                   	pop    %ebx
  3648fe:	5e                   	pop    %esi
  3648ff:	5f                   	pop    %edi
  364900:	5d                   	pop    %ebp
  364901:	c3                   	ret    

00364902 <_input>:
  364902:	55                   	push   %ebp
  364903:	89 e5                	mov    %esp,%ebp
  364905:	83 ec 18             	sub    $0x18,%esp
  364908:	6a 60                	push   $0x60
  36490a:	e8 42 ff ff ff       	call   364851 <inb>
  36490f:	83 c4 04             	add    $0x4,%esp
  364912:	88 45 f7             	mov    %al,-0x9(%ebp)
  364915:	0f b6 45 f7          	movzbl -0x9(%ebp),%eax
  364919:	83 f8 2a             	cmp    $0x2a,%eax
  36491c:	0f 84 87 00 00 00    	je     3649a9 <_input+0xa7>
  364922:	83 f8 2a             	cmp    $0x2a,%eax
  364925:	7f 39                	jg     364960 <_input+0x5e>
  364927:	83 f8 1b             	cmp    $0x1b,%eax
  36492a:	7f 1d                	jg     364949 <_input+0x47>
  36492c:	83 f8 0f             	cmp    $0xf,%eax
  36492f:	0f 8d c4 00 00 00    	jge    3649f9 <_input+0xf7>
  364935:	83 f8 01             	cmp    $0x1,%eax
  364938:	0f 8c 9f 01 00 00    	jl     364add <_input+0x1db>
  36493e:	83 f8 0d             	cmp    $0xd,%eax
  364941:	0f 8e b2 00 00 00    	jle    3649f9 <_input+0xf7>
  364947:	eb 7e                	jmp    3649c7 <_input+0xc5>
  364949:	83 f8 1c             	cmp    $0x1c,%eax
  36494c:	0f 84 05 01 00 00    	je     364a57 <_input+0x155>
  364952:	83 f8 1e             	cmp    $0x1e,%eax
  364955:	0f 8c 82 01 00 00    	jl     364add <_input+0x1db>
  36495b:	e9 99 00 00 00       	jmp    3649f9 <_input+0xf7>
  364960:	83 f8 39             	cmp    $0x39,%eax
  364963:	0f 84 90 00 00 00    	je     3649f9 <_input+0xf7>
  364969:	83 f8 39             	cmp    $0x39,%eax
  36496c:	7f 13                	jg     364981 <_input+0x7f>
  36496e:	83 f8 35             	cmp    $0x35,%eax
  364971:	0f 8e 82 00 00 00    	jle    3649f9 <_input+0xf7>
  364977:	83 f8 36             	cmp    $0x36,%eax
  36497a:	74 2d                	je     3649a9 <_input+0xa7>
  36497c:	e9 5c 01 00 00       	jmp    364add <_input+0x1db>
  364981:	3d aa 00 00 00       	cmp    $0xaa,%eax
  364986:	74 30                	je     3649b8 <_input+0xb6>
  364988:	3d aa 00 00 00       	cmp    $0xaa,%eax
  36498d:	7f 0e                	jg     36499d <_input+0x9b>
  36498f:	83 e8 47             	sub    $0x47,%eax
  364992:	83 f8 0c             	cmp    $0xc,%eax
  364995:	0f 87 42 01 00 00    	ja     364add <_input+0x1db>
  36499b:	eb 5c                	jmp    3649f9 <_input+0xf7>
  36499d:	3d b6 00 00 00       	cmp    $0xb6,%eax
  3649a2:	74 14                	je     3649b8 <_input+0xb6>
  3649a4:	e9 34 01 00 00       	jmp    364add <_input+0x1db>
  3649a9:	c7 05 50 30 37 00 00 	movl   $0x36d900,0x373050
  3649b0:	d9 36 00 
  3649b3:	e9 25 01 00 00       	jmp    364add <_input+0x1db>
  3649b8:	c7 05 50 30 37 00 00 	movl   $0x36d500,0x373050
  3649bf:	d5 36 00 
  3649c2:	e9 16 01 00 00       	jmp    364add <_input+0x1db>
  3649c7:	a1 40 33 37 00       	mov    0x373340,%eax
  3649cc:	85 c0                	test   %eax,%eax
  3649ce:	74 24                	je     3649f4 <_input+0xf2>
  3649d0:	a1 40 33 37 00       	mov    0x373340,%eax
  3649d5:	83 e8 01             	sub    $0x1,%eax
  3649d8:	a3 40 33 37 00       	mov    %eax,0x373340
  3649dd:	83 ec 08             	sub    $0x8,%esp
  3649e0:	6a 08                	push   $0x8
  3649e2:	68 00 dd 36 00       	push   $0x36dd00
  3649e7:	e8 9c 46 00 00       	call   369088 <printk>
  3649ec:	83 c4 10             	add    $0x10,%esp
  3649ef:	e9 e9 00 00 00       	jmp    364add <_input+0x1db>
  3649f4:	e9 e4 00 00 00       	jmp    364add <_input+0x1db>
  3649f9:	a1 40 33 37 00       	mov    0x373340,%eax
  3649fe:	3d fe 00 00 00       	cmp    $0xfe,%eax
  364a03:	77 4d                	ja     364a52 <_input+0x150>
  364a05:	a1 40 33 37 00       	mov    0x373340,%eax
  364a0a:	8d 50 01             	lea    0x1(%eax),%edx
  364a0d:	89 15 40 33 37 00    	mov    %edx,0x373340
  364a13:	8b 15 50 30 37 00    	mov    0x373050,%edx
  364a19:	0f b6 4d f7          	movzbl -0x9(%ebp),%ecx
  364a1d:	c1 e1 02             	shl    $0x2,%ecx
  364a20:	01 ca                	add    %ecx,%edx
  364a22:	8b 12                	mov    (%edx),%edx
  364a24:	88 90 40 32 37 00    	mov    %dl,0x373240(%eax)
  364a2a:	a1 40 33 37 00       	mov    0x373340,%eax
  364a2f:	83 e8 01             	sub    $0x1,%eax
  364a32:	0f b6 80 40 32 37 00 	movzbl 0x373240(%eax),%eax
  364a39:	0f be c0             	movsbl %al,%eax
  364a3c:	83 ec 08             	sub    $0x8,%esp
  364a3f:	50                   	push   %eax
  364a40:	68 00 dd 36 00       	push   $0x36dd00
  364a45:	e8 3e 46 00 00       	call   369088 <printk>
  364a4a:	83 c4 10             	add    $0x10,%esp
  364a4d:	e9 8b 00 00 00       	jmp    364add <_input+0x1db>
  364a52:	e9 86 00 00 00       	jmp    364add <_input+0x1db>
  364a57:	a1 40 33 37 00       	mov    0x373340,%eax
